ARM GAS  C:\Users\Tech\AppData\Local\Temp\ccxJsznD.s 			page 1


   1              		.syntax unified
   2              		.cpu cortex-m0
   3              		.fpu softvfp
   4              		.eabi_attribute 20, 1
   5              		.eabi_attribute 21, 1
   6              		.eabi_attribute 23, 3
   7              		.eabi_attribute 24, 1
   8              		.eabi_attribute 25, 1
   9              		.eabi_attribute 26, 1
  10              		.eabi_attribute 30, 6
  11              		.eabi_attribute 34, 0
  12              		.eabi_attribute 18, 4
  13              		.thumb
  14              		.syntax unified
  15              		.file	"dht22.c"
  16              		.text
  17              	.Ltext0:
  18              		.cfi_sections	.debug_frame
  19              		.section	.text.DHT22_Reset,"ax",%progbits
  20              		.align	2
  21              		.global	DHT22_Reset
  22              		.code	16
  23              		.thumb_func
  24              		.type	DHT22_Reset, %function
  25              	DHT22_Reset:
  26              	.LFB35:
  27              		.file 1 "dht22.c"
   1:dht22.c       **** /* ========================================
   2:dht22.c       ****  * Filename:        dht22.c
   3:dht22.c       ****  * Description:     DHT22 Driver for PSoC source file
   4:dht22.c       ****  * Author:          techdude101
   5:dht22.c       ****  * Version:         0.1.0
   6:dht22.c       ****  * ========================================
   7:dht22.c       **** */
   8:dht22.c       **** 
   9:dht22.c       **** #include "dht22.h"
  10:dht22.c       **** #include <project.h>
  11:dht22.c       **** 
  12:dht22.c       **** /*******************************************************************************
  13:dht22.c       **** * Function Name: DHT22_Reset
  14:dht22.c       **** ********************************************************************************
  15:dht22.c       **** *
  16:dht22.c       **** * Summary:
  17:dht22.c       **** *  This routine resets a DHT22 device.
  18:dht22.c       **** *
  19:dht22.c       **** * Parameters:
  20:dht22.c       **** *  None
  21:dht22.c       **** *
  22:dht22.c       **** * Return:
  23:dht22.c       **** *  None
  24:dht22.c       **** *
  25:dht22.c       **** *******************************************************************************/
  26:dht22.c       **** void DHT22_Reset(void)	   
  27:dht22.c       **** {      	
  28              		.loc 1 27 0
  29              		.cfi_startproc
  30              		@ args = 0, pretend = 0, frame = 0
ARM GAS  C:\Users\Tech\AppData\Local\Temp\ccxJsznD.s 			page 2


  31              		@ frame_needed = 1, uses_anonymous_args = 0
  32 0000 80B5     		push	{r7, lr}
  33              		.cfi_def_cfa_offset 8
  34              		.cfi_offset 7, -8
  35              		.cfi_offset 14, -4
  36 0002 00AF     		add	r7, sp, #0
  37              		.cfi_def_cfa_register 7
  28:dht22.c       ****     static uint8_t IState;
  29:dht22.c       ****     IState = CyEnterCriticalSection();  
  38              		.loc 1 29 0
  39 0004 FFF7FEFF 		bl	CyEnterCriticalSection
  40 0008 0300     		movs	r3, r0
  41 000a 1A00     		movs	r2, r3
  42 000c 0A4B     		ldr	r3, .L2
  43 000e 1A70     		strb	r2, [r3]
  30:dht22.c       ****     DHT22_DQ_Write(0); 	// Pull down DQ
  44              		.loc 1 30 0
  45 0010 0020     		movs	r0, #0
  46 0012 FFF7FEFF 		bl	DHT22_DQ_Write
  31:dht22.c       ****     CyDelay(20);    	// Pull down for at least 18ms
  47              		.loc 1 31 0
  48 0016 1420     		movs	r0, #20
  49 0018 FFF7FEFF 		bl	CyDelay
  32:dht22.c       ****     DHT22_DQ_Write(1); 	// DQ = 1 
  50              		.loc 1 32 0
  51 001c 0120     		movs	r0, #1
  52 001e FFF7FEFF 		bl	DHT22_DQ_Write
  33:dht22.c       **** 	CyDelayUs(30);     	// The host pulls 20~40us
  53              		.loc 1 33 0
  54 0022 1E20     		movs	r0, #30
  55 0024 FFF7FEFF 		bl	CyDelayUs
  34:dht22.c       ****     
  35:dht22.c       ****     CyExitCriticalSection(IState); 
  56              		.loc 1 35 0
  57 0028 034B     		ldr	r3, .L2
  58 002a 1B78     		ldrb	r3, [r3]
  59 002c 1800     		movs	r0, r3
  60 002e FFF7FEFF 		bl	CyExitCriticalSection
  36:dht22.c       **** }
  61              		.loc 1 36 0
  62 0032 C046     		nop
  63 0034 BD46     		mov	sp, r7
  64              		@ sp needed
  65 0036 80BD     		pop	{r7, pc}
  66              	.L3:
  67              		.align	2
  68              	.L2:
  69 0038 00000000 		.word	IState.7092
  70              		.cfi_endproc
  71              	.LFE35:
  72              		.size	DHT22_Reset, .-DHT22_Reset
  73              		.section	.text.DHT22_Check,"ax",%progbits
  74              		.align	2
  75              		.global	DHT22_Check
  76              		.code	16
  77              		.thumb_func
  78              		.type	DHT22_Check, %function
ARM GAS  C:\Users\Tech\AppData\Local\Temp\ccxJsznD.s 			page 3


  79              	DHT22_Check:
  80              	.LFB36:
  37:dht22.c       **** 
  38:dht22.c       **** /*******************************************************************************
  39:dht22.c       **** * Function Name: DHT22_Check
  40:dht22.c       **** ********************************************************************************
  41:dht22.c       **** *
  42:dht22.c       **** * Summary:
  43:dht22.c       **** *  This routine resets a DHT22 device.
  44:dht22.c       **** *
  45:dht22.c       **** * Parameters:
  46:dht22.c       **** *  None
  47:dht22.c       **** *
  48:dht22.c       **** * Return:
  49:dht22.c       **** *  uint8_t error: 1 = error, 0 = no error
  50:dht22.c       **** *
  51:dht22.c       **** *******************************************************************************/
  52:dht22.c       **** uint8_t DHT22_Check(void) 	   
  53:dht22.c       **** {   
  81              		.loc 1 53 0
  82              		.cfi_startproc
  83              		@ args = 0, pretend = 0, frame = 8
  84              		@ frame_needed = 1, uses_anonymous_args = 0
  85 0000 80B5     		push	{r7, lr}
  86              		.cfi_def_cfa_offset 8
  87              		.cfi_offset 7, -8
  88              		.cfi_offset 14, -4
  89 0002 82B0     		sub	sp, sp, #8
  90              		.cfi_def_cfa_offset 16
  91 0004 00AF     		add	r7, sp, #0
  92              		.cfi_def_cfa_register 7
  54:dht22.c       ****     static uint8_t IState;
  55:dht22.c       ****     IState = CyEnterCriticalSection();  
  93              		.loc 1 55 0
  94 0006 FFF7FEFF 		bl	CyEnterCriticalSection
  95 000a 0300     		movs	r3, r0
  96 000c 1A00     		movs	r2, r3
  97 000e 204B     		ldr	r3, .L14
  98 0010 1A70     		strb	r2, [r3]
  56:dht22.c       ****     
  57:dht22.c       **** 	uint8_t retry = 100;
  99              		.loc 1 57 0
 100 0012 FB1D     		adds	r3, r7, #7
 101 0014 6422     		movs	r2, #100
 102 0016 1A70     		strb	r2, [r3]
  58:dht22.c       ****    	while ((!DHT22_DQ_Read()) && retry) // DHT22 will pull down 40~80us
 103              		.loc 1 58 0
 104 0018 07E0     		b	.L5
 105              	.L7:
  59:dht22.c       **** 	{
  60:dht22.c       **** 		retry--;
 106              		.loc 1 60 0
 107 001a FB1D     		adds	r3, r7, #7
 108 001c 1A78     		ldrb	r2, [r3]
 109 001e FB1D     		adds	r3, r7, #7
 110 0020 013A     		subs	r2, r2, #1
 111 0022 1A70     		strb	r2, [r3]
ARM GAS  C:\Users\Tech\AppData\Local\Temp\ccxJsznD.s 			page 4


  61:dht22.c       **** 		CyDelayUs(1);
 112              		.loc 1 61 0
 113 0024 0120     		movs	r0, #1
 114 0026 FFF7FEFF 		bl	CyDelayUs
 115              	.L5:
  58:dht22.c       ****    	while ((!DHT22_DQ_Read()) && retry) // DHT22 will pull down 40~80us
 116              		.loc 1 58 0
 117 002a FFF7FEFF 		bl	DHT22_DQ_Read
 118 002e 031E     		subs	r3, r0, #0
 119 0030 03D1     		bne	.L6
  58:dht22.c       ****    	while ((!DHT22_DQ_Read()) && retry) // DHT22 will pull down 40~80us
 120              		.loc 1 58 0 is_stmt 0 discriminator 1
 121 0032 FB1D     		adds	r3, r7, #7
 122 0034 1B78     		ldrb	r3, [r3]
 123 0036 002B     		cmp	r3, #0
 124 0038 EFD1     		bne	.L7
 125              	.L6:
  62:dht22.c       **** 	};	 
  63:dht22.c       **** 	if (retry < 1) return 1;
 126              		.loc 1 63 0 is_stmt 1
 127 003a FB1D     		adds	r3, r7, #7
 128 003c 1B78     		ldrb	r3, [r3]
 129 003e 002B     		cmp	r3, #0
 130 0040 01D1     		bne	.L8
 131              		.loc 1 63 0 is_stmt 0 discriminator 1
 132 0042 0123     		movs	r3, #1
 133 0044 1FE0     		b	.L9
 134              	.L8:
  64:dht22.c       **** 	else retry = 100;
 135              		.loc 1 64 0 is_stmt 1
 136 0046 FB1D     		adds	r3, r7, #7
 137 0048 6422     		movs	r2, #100
 138 004a 1A70     		strb	r2, [r3]
  65:dht22.c       ****     while (DHT22_DQ_Read() && retry) // DHT22 will pull up 40~80us again after pulling low
 139              		.loc 1 65 0
 140 004c 07E0     		b	.L10
 141              	.L12:
  66:dht22.c       **** 	{
  67:dht22.c       **** 		retry--;
 142              		.loc 1 67 0
 143 004e FB1D     		adds	r3, r7, #7
 144 0050 1A78     		ldrb	r2, [r3]
 145 0052 FB1D     		adds	r3, r7, #7
 146 0054 013A     		subs	r2, r2, #1
 147 0056 1A70     		strb	r2, [r3]
  68:dht22.c       **** 		CyDelayUs(1);
 148              		.loc 1 68 0
 149 0058 0120     		movs	r0, #1
 150 005a FFF7FEFF 		bl	CyDelayUs
 151              	.L10:
  65:dht22.c       ****     while (DHT22_DQ_Read() && retry) // DHT22 will pull up 40~80us again after pulling low
 152              		.loc 1 65 0
 153 005e FFF7FEFF 		bl	DHT22_DQ_Read
 154 0062 031E     		subs	r3, r0, #0
 155 0064 03D0     		beq	.L11
  65:dht22.c       ****     while (DHT22_DQ_Read() && retry) // DHT22 will pull up 40~80us again after pulling low
 156              		.loc 1 65 0 is_stmt 0 discriminator 1
ARM GAS  C:\Users\Tech\AppData\Local\Temp\ccxJsznD.s 			page 5


 157 0066 FB1D     		adds	r3, r7, #7
 158 0068 1B78     		ldrb	r3, [r3]
 159 006a 002B     		cmp	r3, #0
 160 006c EFD1     		bne	.L12
 161              	.L11:
  69:dht22.c       **** 	};
  70:dht22.c       ****     
  71:dht22.c       ****     CyExitCriticalSection(IState); 
 162              		.loc 1 71 0 is_stmt 1
 163 006e 084B     		ldr	r3, .L14
 164 0070 1B78     		ldrb	r3, [r3]
 165 0072 1800     		movs	r0, r3
 166 0074 FFF7FEFF 		bl	CyExitCriticalSection
  72:dht22.c       **** 	
  73:dht22.c       ****     if (retry < 1)
 167              		.loc 1 73 0
 168 0078 FB1D     		adds	r3, r7, #7
 169 007a 1B78     		ldrb	r3, [r3]
 170 007c 002B     		cmp	r3, #0
 171 007e 01D1     		bne	.L13
  74:dht22.c       **** 		return 1;	    
 172              		.loc 1 74 0
 173 0080 0123     		movs	r3, #1
 174 0082 00E0     		b	.L9
 175              	.L13:
  75:dht22.c       **** 	return 0;
 176              		.loc 1 75 0
 177 0084 0023     		movs	r3, #0
 178              	.L9:
  76:dht22.c       **** }
 179              		.loc 1 76 0
 180 0086 1800     		movs	r0, r3
 181 0088 BD46     		mov	sp, r7
 182 008a 02B0     		add	sp, sp, #8
 183              		@ sp needed
 184 008c 80BD     		pop	{r7, pc}
 185              	.L15:
 186 008e C046     		.align	2
 187              	.L14:
 188 0090 01000000 		.word	IState.7096
 189              		.cfi_endproc
 190              	.LFE36:
 191              		.size	DHT22_Check, .-DHT22_Check
 192              		.section	.text.DHT22_Read_Bit,"ax",%progbits
 193              		.align	2
 194              		.global	DHT22_Read_Bit
 195              		.code	16
 196              		.thumb_func
 197              		.type	DHT22_Read_Bit, %function
 198              	DHT22_Read_Bit:
 199              	.LFB37:
  77:dht22.c       **** 
  78:dht22.c       **** /*******************************************************************************
  79:dht22.c       **** * Function Name: DHT22_Read_Bit
  80:dht22.c       **** ********************************************************************************
  81:dht22.c       **** *
  82:dht22.c       **** * Summary:
ARM GAS  C:\Users\Tech\AppData\Local\Temp\ccxJsznD.s 			page 6


  83:dht22.c       **** *  This routine reads one bit from a DHT22 device.
  84:dht22.c       **** *
  85:dht22.c       **** * Parameters:
  86:dht22.c       **** *  None
  87:dht22.c       **** *
  88:dht22.c       **** * Return:
  89:dht22.c       **** *  uint8_t bit: Bit status
  90:dht22.c       **** *
  91:dht22.c       **** *******************************************************************************/
  92:dht22.c       **** uint8_t DHT22_Read_Bit(void) 			 
  93:dht22.c       **** {
 200              		.loc 1 93 0
 201              		.cfi_startproc
 202              		@ args = 0, pretend = 0, frame = 8
 203              		@ frame_needed = 1, uses_anonymous_args = 0
 204 0000 90B5     		push	{r4, r7, lr}
 205              		.cfi_def_cfa_offset 12
 206              		.cfi_offset 4, -12
 207              		.cfi_offset 7, -8
 208              		.cfi_offset 14, -4
 209 0002 83B0     		sub	sp, sp, #12
 210              		.cfi_def_cfa_offset 24
 211 0004 00AF     		add	r7, sp, #0
 212              		.cfi_def_cfa_register 7
  94:dht22.c       ****  	uint8_t dat;
  95:dht22.c       ****  	uint8_t retry = 100;
 213              		.loc 1 95 0
 214 0006 BB1D     		adds	r3, r7, #6
 215 0008 6422     		movs	r2, #100
 216 000a 1A70     		strb	r2, [r3]
  96:dht22.c       ****     uint8_t IState = CyEnterCriticalSection();  
 217              		.loc 1 96 0
 218 000c 7C1D     		adds	r4, r7, #5
 219 000e FFF7FEFF 		bl	CyEnterCriticalSection
 220 0012 0300     		movs	r3, r0
 221 0014 2370     		strb	r3, [r4]
  97:dht22.c       **** 	
  98:dht22.c       ****     while((!DHT22_DQ_Read()) && retry) // Wait to go high
 222              		.loc 1 98 0
 223 0016 07E0     		b	.L17
 224              	.L19:
  99:dht22.c       **** 	{
 100:dht22.c       **** 		retry--;
 225              		.loc 1 100 0
 226 0018 BB1D     		adds	r3, r7, #6
 227 001a 1A78     		ldrb	r2, [r3]
 228 001c BB1D     		adds	r3, r7, #6
 229 001e 013A     		subs	r2, r2, #1
 230 0020 1A70     		strb	r2, [r3]
 101:dht22.c       **** 		CyDelayUs(1);
 231              		.loc 1 101 0
 232 0022 0120     		movs	r0, #1
 233 0024 FFF7FEFF 		bl	CyDelayUs
 234              	.L17:
  98:dht22.c       **** 	{
 235              		.loc 1 98 0
 236 0028 FFF7FEFF 		bl	DHT22_DQ_Read
ARM GAS  C:\Users\Tech\AppData\Local\Temp\ccxJsznD.s 			page 7


 237 002c 031E     		subs	r3, r0, #0
 238 002e 03D1     		bne	.L18
  98:dht22.c       **** 	{
 239              		.loc 1 98 0 is_stmt 0 discriminator 1
 240 0030 BB1D     		adds	r3, r7, #6
 241 0032 1B78     		ldrb	r3, [r3]
 242 0034 002B     		cmp	r3, #0
 243 0036 EFD1     		bne	.L19
 244              	.L18:
 102:dht22.c       **** 	}
 103:dht22.c       **** 	retry = 100;
 245              		.loc 1 103 0 is_stmt 1
 246 0038 BB1D     		adds	r3, r7, #6
 247 003a 6422     		movs	r2, #100
 248 003c 1A70     		strb	r2, [r3]
 104:dht22.c       **** 	dat = 0;
 249              		.loc 1 104 0
 250 003e FB1D     		adds	r3, r7, #7
 251 0040 0022     		movs	r2, #0
 252 0042 1A70     		strb	r2, [r3]
 105:dht22.c       **** 	CyDelayUs(30); //wait for 30us
 253              		.loc 1 105 0
 254 0044 1E20     		movs	r0, #30
 255 0046 FFF7FEFF 		bl	CyDelayUs
 106:dht22.c       **** 	
 107:dht22.c       ****     if(DHT22_DQ_Read())	
 256              		.loc 1 107 0
 257 004a FFF7FEFF 		bl	DHT22_DQ_Read
 258 004e 031E     		subs	r3, r0, #0
 259 0050 0BD0     		beq	.L21
 108:dht22.c       **** 		dat = 1;	   
 260              		.loc 1 108 0
 261 0052 FB1D     		adds	r3, r7, #7
 262 0054 0122     		movs	r2, #1
 263 0056 1A70     		strb	r2, [r3]
 109:dht22.c       **** 	
 110:dht22.c       ****     while(DHT22_DQ_Read() && retry) // Waiting to go low
 264              		.loc 1 110 0
 265 0058 07E0     		b	.L21
 266              	.L23:
 111:dht22.c       **** 	{
 112:dht22.c       **** 		retry--;
 267              		.loc 1 112 0
 268 005a BB1D     		adds	r3, r7, #6
 269 005c 1A78     		ldrb	r2, [r3]
 270 005e BB1D     		adds	r3, r7, #6
 271 0060 013A     		subs	r2, r2, #1
 272 0062 1A70     		strb	r2, [r3]
 113:dht22.c       **** 		CyDelayUs(1);
 273              		.loc 1 113 0
 274 0064 0120     		movs	r0, #1
 275 0066 FFF7FEFF 		bl	CyDelayUs
 276              	.L21:
 110:dht22.c       **** 	{
 277              		.loc 1 110 0
 278 006a FFF7FEFF 		bl	DHT22_DQ_Read
 279 006e 031E     		subs	r3, r0, #0
ARM GAS  C:\Users\Tech\AppData\Local\Temp\ccxJsznD.s 			page 8


 280 0070 03D0     		beq	.L22
 110:dht22.c       **** 	{
 281              		.loc 1 110 0 is_stmt 0 discriminator 1
 282 0072 BB1D     		adds	r3, r7, #6
 283 0074 1B78     		ldrb	r3, [r3]
 284 0076 002B     		cmp	r3, #0
 285 0078 EFD1     		bne	.L23
 286              	.L22:
 114:dht22.c       **** 	}
 115:dht22.c       ****     CyExitCriticalSection(IState);
 287              		.loc 1 115 0 is_stmt 1
 288 007a 7B1D     		adds	r3, r7, #5
 289 007c 1B78     		ldrb	r3, [r3]
 290 007e 1800     		movs	r0, r3
 291 0080 FFF7FEFF 		bl	CyExitCriticalSection
 116:dht22.c       **** 	return dat;		
 292              		.loc 1 116 0
 293 0084 FB1D     		adds	r3, r7, #7
 294 0086 1B78     		ldrb	r3, [r3]
 117:dht22.c       **** }
 295              		.loc 1 117 0
 296 0088 1800     		movs	r0, r3
 297 008a BD46     		mov	sp, r7
 298 008c 03B0     		add	sp, sp, #12
 299              		@ sp needed
 300 008e 90BD     		pop	{r4, r7, pc}
 301              		.cfi_endproc
 302              	.LFE37:
 303              		.size	DHT22_Read_Bit, .-DHT22_Read_Bit
 304              		.section	.text.DHT22_Read_Byte,"ax",%progbits
 305              		.align	2
 306              		.global	DHT22_Read_Byte
 307              		.code	16
 308              		.thumb_func
 309              		.type	DHT22_Read_Byte, %function
 310              	DHT22_Read_Byte:
 311              	.LFB38:
 118:dht22.c       **** 
 119:dht22.c       **** /*******************************************************************************
 120:dht22.c       **** * Function Name: DHT22_Read_Byte
 121:dht22.c       **** ********************************************************************************
 122:dht22.c       **** *
 123:dht22.c       **** * Summary:
 124:dht22.c       **** *  This routine reads one byte from a DHT22 device.
 125:dht22.c       **** *
 126:dht22.c       **** * Parameters:
 127:dht22.c       **** *  None
 128:dht22.c       **** *
 129:dht22.c       **** * Return:
 130:dht22.c       **** *  uint8_t read byte: Byte read from DHT22 device
 131:dht22.c       **** *
 132:dht22.c       **** *******************************************************************************/
 133:dht22.c       **** uint8_t DHT22_Read_Byte(void)    
 134:dht22.c       **** {        
 312              		.loc 1 134 0
 313              		.cfi_startproc
 314              		@ args = 0, pretend = 0, frame = 8
ARM GAS  C:\Users\Tech\AppData\Local\Temp\ccxJsznD.s 			page 9


 315              		@ frame_needed = 1, uses_anonymous_args = 0
 316 0000 80B5     		push	{r7, lr}
 317              		.cfi_def_cfa_offset 8
 318              		.cfi_offset 7, -8
 319              		.cfi_offset 14, -4
 320 0002 82B0     		sub	sp, sp, #8
 321              		.cfi_def_cfa_offset 16
 322 0004 00AF     		add	r7, sp, #0
 323              		.cfi_def_cfa_register 7
 135:dht22.c       ****     uint8_t dat;
 136:dht22.c       ****     dat = 0;
 324              		.loc 1 136 0
 325 0006 FB1D     		adds	r3, r7, #7
 326 0008 0022     		movs	r2, #0
 327 000a 1A70     		strb	r2, [r3]
 328              	.LBB2:
 137:dht22.c       **** 	for (uint8_t i = 0; i < 8; i++) 
 329              		.loc 1 137 0
 330 000c BB1D     		adds	r3, r7, #6
 331 000e 0022     		movs	r2, #0
 332 0010 1A70     		strb	r2, [r3]
 333 0012 12E0     		b	.L26
 334              	.L27:
 138:dht22.c       **** 	{
 139:dht22.c       ****    		dat <<= (1u); 
 335              		.loc 1 139 0 discriminator 3
 336 0014 FA1D     		adds	r2, r7, #7
 337 0016 FB1D     		adds	r3, r7, #7
 338 0018 1B78     		ldrb	r3, [r3]
 339 001a DB18     		adds	r3, r3, r3
 340 001c 1370     		strb	r3, [r2]
 140:dht22.c       **** 	    dat |= DHT22_Read_Bit();
 341              		.loc 1 140 0 discriminator 3
 342 001e FFF7FEFF 		bl	DHT22_Read_Bit
 343 0022 0300     		movs	r3, r0
 344 0024 1900     		movs	r1, r3
 345 0026 FB1D     		adds	r3, r7, #7
 346 0028 FA1D     		adds	r2, r7, #7
 347 002a 1278     		ldrb	r2, [r2]
 348 002c 0A43     		orrs	r2, r1
 349 002e 1A70     		strb	r2, [r3]
 137:dht22.c       **** 	for (uint8_t i = 0; i < 8; i++) 
 350              		.loc 1 137 0 discriminator 3
 351 0030 BB1D     		adds	r3, r7, #6
 352 0032 1A78     		ldrb	r2, [r3]
 353 0034 BB1D     		adds	r3, r7, #6
 354 0036 0132     		adds	r2, r2, #1
 355 0038 1A70     		strb	r2, [r3]
 356              	.L26:
 137:dht22.c       **** 	for (uint8_t i = 0; i < 8; i++) 
 357              		.loc 1 137 0 is_stmt 0 discriminator 1
 358 003a BB1D     		adds	r3, r7, #6
 359 003c 1B78     		ldrb	r3, [r3]
 360 003e 072B     		cmp	r3, #7
 361 0040 E8D9     		bls	.L27
 362              	.LBE2:
 141:dht22.c       ****     }						    
ARM GAS  C:\Users\Tech\AppData\Local\Temp\ccxJsznD.s 			page 10


 142:dht22.c       ****     return dat;
 363              		.loc 1 142 0 is_stmt 1
 364 0042 FB1D     		adds	r3, r7, #7
 365 0044 1B78     		ldrb	r3, [r3]
 143:dht22.c       **** }
 366              		.loc 1 143 0
 367 0046 1800     		movs	r0, r3
 368 0048 BD46     		mov	sp, r7
 369 004a 02B0     		add	sp, sp, #8
 370              		@ sp needed
 371 004c 80BD     		pop	{r7, pc}
 372              		.cfi_endproc
 373              	.LFE38:
 374              		.size	DHT22_Read_Byte, .-DHT22_Read_Byte
 375 004e C046     		.section	.text.DHT22_Read_Data,"ax",%progbits
 376              		.align	2
 377              		.global	DHT22_Read_Data
 378              		.code	16
 379              		.thumb_func
 380              		.type	DHT22_Read_Data, %function
 381              	DHT22_Read_Data:
 382              	.LFB39:
 144:dht22.c       **** 
 145:dht22.c       **** /*******************************************************************************
 146:dht22.c       **** * Function Name: DHT22_Read_Data
 147:dht22.c       **** ********************************************************************************
 148:dht22.c       **** *
 149:dht22.c       **** * Summary:
 150:dht22.c       **** *  This routine reads the sensor data from a DHT22 device.
 151:dht22.c       **** *  Humidity[0-1], temperature[2-3] and checksum[4]
 152:dht22.c       **** *
 153:dht22.c       **** * Parameters:
 154:dht22.c       **** *  uint8_t* data: Pointer to an array[5] to store the data read from the DHT22 device
 155:dht22.c       **** *
 156:dht22.c       **** * Return:
 157:dht22.c       **** *  uint8_t error: 1 = error, 0 = no error
 158:dht22.c       **** *
 159:dht22.c       **** *******************************************************************************/
 160:dht22.c       **** uint8_t DHT22_Read_Data(uint8_t *data)    
 161:dht22.c       **** {        
 383              		.loc 1 161 0
 384              		.cfi_startproc
 385              		@ args = 0, pretend = 0, frame = 16
 386              		@ frame_needed = 1, uses_anonymous_args = 0
 387 0000 90B5     		push	{r4, r7, lr}
 388              		.cfi_def_cfa_offset 12
 389              		.cfi_offset 4, -12
 390              		.cfi_offset 7, -8
 391              		.cfi_offset 14, -4
 392 0002 85B0     		sub	sp, sp, #20
 393              		.cfi_def_cfa_offset 32
 394 0004 00AF     		add	r7, sp, #0
 395              		.cfi_def_cfa_register 7
 396 0006 7860     		str	r0, [r7, #4]
 162:dht22.c       ****  	volatile uint8_t buf[5];
 163:dht22.c       **** 	
 164:dht22.c       ****     DHT22_Reset();
ARM GAS  C:\Users\Tech\AppData\Local\Temp\ccxJsznD.s 			page 11


 397              		.loc 1 164 0
 398 0008 FFF7FEFF 		bl	DHT22_Reset
 165:dht22.c       **** 	
 166:dht22.c       ****     if(DHT22_Check() == 0)
 399              		.loc 1 166 0
 400 000c FFF7FEFF 		bl	DHT22_Check
 401 0010 031E     		subs	r3, r0, #0
 402 0012 55D1     		bne	.L30
 403              	.LBB3:
 167:dht22.c       **** 	{
 168:dht22.c       **** 		for(uint8_t i = 0; i < 5; i++) // Read 40-bit data
 404              		.loc 1 168 0
 405 0014 0F23     		movs	r3, #15
 406 0016 FB18     		adds	r3, r7, r3
 407 0018 0022     		movs	r2, #0
 408 001a 1A70     		strb	r2, [r3]
 409 001c 10E0     		b	.L31
 410              	.L32:
 169:dht22.c       **** 		{
 170:dht22.c       **** 			buf[i] = DHT22_Read_Byte();
 411              		.loc 1 170 0 discriminator 3
 412 001e 0F23     		movs	r3, #15
 413 0020 FB18     		adds	r3, r7, r3
 414 0022 1C78     		ldrb	r4, [r3]
 415 0024 FFF7FEFF 		bl	DHT22_Read_Byte
 416 0028 0300     		movs	r3, r0
 417 002a 1A00     		movs	r2, r3
 418 002c 0823     		movs	r3, #8
 419 002e FB18     		adds	r3, r7, r3
 420 0030 1A55     		strb	r2, [r3, r4]
 168:dht22.c       **** 		{
 421              		.loc 1 168 0 discriminator 3
 422 0032 0F23     		movs	r3, #15
 423 0034 FB18     		adds	r3, r7, r3
 424 0036 1A78     		ldrb	r2, [r3]
 425 0038 0F23     		movs	r3, #15
 426 003a FB18     		adds	r3, r7, r3
 427 003c 0132     		adds	r2, r2, #1
 428 003e 1A70     		strb	r2, [r3]
 429              	.L31:
 168:dht22.c       **** 		{
 430              		.loc 1 168 0 is_stmt 0 discriminator 1
 431 0040 0F23     		movs	r3, #15
 432 0042 FB18     		adds	r3, r7, r3
 433 0044 1B78     		ldrb	r3, [r3]
 434 0046 042B     		cmp	r3, #4
 435 0048 E9D9     		bls	.L32
 436              	.LBE3:
 171:dht22.c       **** 		}
 172:dht22.c       ****         
 173:dht22.c       **** 		// Checksum accumulation has a considerable probability that will exceed 8 bits (that is, the val
 174:dht22.c       **** 		if((uint8_t)(buf[0] + buf[1] + buf[2] + buf[3]) == buf[4])  
 437              		.loc 1 174 0 is_stmt 1
 438 004a 0823     		movs	r3, #8
 439 004c FB18     		adds	r3, r7, r3
 440 004e 1B78     		ldrb	r3, [r3]
 441 0050 DAB2     		uxtb	r2, r3
ARM GAS  C:\Users\Tech\AppData\Local\Temp\ccxJsznD.s 			page 12


 442 0052 0823     		movs	r3, #8
 443 0054 FB18     		adds	r3, r7, r3
 444 0056 5B78     		ldrb	r3, [r3, #1]
 445 0058 DBB2     		uxtb	r3, r3
 446 005a D318     		adds	r3, r2, r3
 447 005c DAB2     		uxtb	r2, r3
 448 005e 0823     		movs	r3, #8
 449 0060 FB18     		adds	r3, r7, r3
 450 0062 9B78     		ldrb	r3, [r3, #2]
 451 0064 DBB2     		uxtb	r3, r3
 452 0066 D318     		adds	r3, r2, r3
 453 0068 DAB2     		uxtb	r2, r3
 454 006a 0823     		movs	r3, #8
 455 006c FB18     		adds	r3, r7, r3
 456 006e DB78     		ldrb	r3, [r3, #3]
 457 0070 DBB2     		uxtb	r3, r3
 458 0072 D318     		adds	r3, r2, r3
 459 0074 DAB2     		uxtb	r2, r3
 460 0076 0823     		movs	r3, #8
 461 0078 FB18     		adds	r3, r7, r3
 462 007a 1B79     		ldrb	r3, [r3, #4]
 463 007c DBB2     		uxtb	r3, r3
 464 007e 9A42     		cmp	r2, r3
 465 0080 1ED1     		bne	.L30
 466              	.LBB4:
 175:dht22.c       **** 		{
 176:dht22.c       **** 			for(uint8_t i = 0; i < 4; i++)
 467              		.loc 1 176 0
 468 0082 0E23     		movs	r3, #14
 469 0084 FB18     		adds	r3, r7, r3
 470 0086 0022     		movs	r2, #0
 471 0088 1A70     		strb	r2, [r3]
 472 008a 12E0     		b	.L33
 473              	.L34:
 177:dht22.c       **** 			{
 178:dht22.c       **** 				*data = buf[i];
 474              		.loc 1 178 0 discriminator 3
 475 008c 0E23     		movs	r3, #14
 476 008e FB18     		adds	r3, r7, r3
 477 0090 1B78     		ldrb	r3, [r3]
 478 0092 0822     		movs	r2, #8
 479 0094 BA18     		adds	r2, r7, r2
 480 0096 D35C     		ldrb	r3, [r2, r3]
 481 0098 DAB2     		uxtb	r2, r3
 482 009a 7B68     		ldr	r3, [r7, #4]
 483 009c 1A70     		strb	r2, [r3]
 179:dht22.c       **** 				data++;
 484              		.loc 1 179 0 discriminator 3
 485 009e 7B68     		ldr	r3, [r7, #4]
 486 00a0 0133     		adds	r3, r3, #1
 487 00a2 7B60     		str	r3, [r7, #4]
 176:dht22.c       **** 			{
 488              		.loc 1 176 0 discriminator 3
 489 00a4 0E23     		movs	r3, #14
 490 00a6 FB18     		adds	r3, r7, r3
 491 00a8 1A78     		ldrb	r2, [r3]
 492 00aa 0E23     		movs	r3, #14
ARM GAS  C:\Users\Tech\AppData\Local\Temp\ccxJsznD.s 			page 13


 493 00ac FB18     		adds	r3, r7, r3
 494 00ae 0132     		adds	r2, r2, #1
 495 00b0 1A70     		strb	r2, [r3]
 496              	.L33:
 176:dht22.c       **** 			{
 497              		.loc 1 176 0 is_stmt 0 discriminator 1
 498 00b2 0E23     		movs	r3, #14
 499 00b4 FB18     		adds	r3, r7, r3
 500 00b6 1B78     		ldrb	r3, [r3]
 501 00b8 032B     		cmp	r3, #3
 502 00ba E7D9     		bls	.L34
 503              	.LBE4:
 180:dht22.c       **** 			}
 181:dht22.c       **** 			return 0;	
 504              		.loc 1 181 0 is_stmt 1
 505 00bc 0023     		movs	r3, #0
 506 00be 00E0     		b	.L35
 507              	.L30:
 182:dht22.c       **** 		}
 183:dht22.c       **** 	}
 184:dht22.c       **** 	return 1;   
 508              		.loc 1 184 0
 509 00c0 0123     		movs	r3, #1
 510              	.L35:
 185:dht22.c       **** }
 511              		.loc 1 185 0
 512 00c2 1800     		movs	r0, r3
 513 00c4 BD46     		mov	sp, r7
 514 00c6 05B0     		add	sp, sp, #20
 515              		@ sp needed
 516 00c8 90BD     		pop	{r4, r7, pc}
 517              		.cfi_endproc
 518              	.LFE39:
 519              		.size	DHT22_Read_Data, .-DHT22_Read_Data
 520 00ca C046     		.section	.text.DHT22_Init,"ax",%progbits
 521              		.align	2
 522              		.global	DHT22_Init
 523              		.code	16
 524              		.thumb_func
 525              		.type	DHT22_Init, %function
 526              	DHT22_Init:
 527              	.LFB40:
 186:dht22.c       **** 
 187:dht22.c       **** /*******************************************************************************
 188:dht22.c       **** * Function Name: DHT22_Init
 189:dht22.c       **** ********************************************************************************
 190:dht22.c       **** *
 191:dht22.c       **** * Summary:
 192:dht22.c       **** *  This routine initializes and checks for the presence of a DHT22 device.
 193:dht22.c       **** *
 194:dht22.c       **** * Parameters:
 195:dht22.c       **** *  None
 196:dht22.c       **** *
 197:dht22.c       **** * Return:
 198:dht22.c       **** *  uint8_t error: 1 = error, 0 = no error
 199:dht22.c       **** *
 200:dht22.c       **** *******************************************************************************/
ARM GAS  C:\Users\Tech\AppData\Local\Temp\ccxJsznD.s 			page 14


 201:dht22.c       **** uint8_t DHT22_Init(void)
 202:dht22.c       **** {	
 528              		.loc 1 202 0
 529              		.cfi_startproc
 530              		@ args = 0, pretend = 0, frame = 0
 531              		@ frame_needed = 1, uses_anonymous_args = 0
 532 0000 80B5     		push	{r7, lr}
 533              		.cfi_def_cfa_offset 8
 534              		.cfi_offset 7, -8
 535              		.cfi_offset 14, -4
 536 0002 00AF     		add	r7, sp, #0
 537              		.cfi_def_cfa_register 7
 203:dht22.c       **** 	DHT22_Reset();
 538              		.loc 1 203 0
 539 0004 FFF7FEFF 		bl	DHT22_Reset
 204:dht22.c       **** 	return DHT22_Check();
 540              		.loc 1 204 0
 541 0008 FFF7FEFF 		bl	DHT22_Check
 542 000c 0300     		movs	r3, r0
 205:dht22.c       **** }
 543              		.loc 1 205 0
 544 000e 1800     		movs	r0, r3
 545 0010 BD46     		mov	sp, r7
 546              		@ sp needed
 547 0012 80BD     		pop	{r7, pc}
 548              		.cfi_endproc
 549              	.LFE40:
 550              		.size	DHT22_Init, .-DHT22_Init
 551              		.section	.text.DHT22_getTemperatureX100,"ax",%progbits
 552              		.align	2
 553              		.global	DHT22_getTemperatureX100
 554              		.code	16
 555              		.thumb_func
 556              		.type	DHT22_getTemperatureX100, %function
 557              	DHT22_getTemperatureX100:
 558              	.LFB41:
 206:dht22.c       **** 
 207:dht22.c       **** /*******************************************************************************
 208:dht22.c       **** * Function Name: DHT22_getTemperatureX100
 209:dht22.c       **** ********************************************************************************
 210:dht22.c       **** *
 211:dht22.c       **** * Summary:
 212:dht22.c       **** *  This routine extracts the temperature data from a data packet read from a DHT22 sensor
 213:dht22.c       **** *
 214:dht22.c       **** * Parameters:
 215:dht22.c       **** *  uint8_t* data: DHT22 data array
 216:dht22.c       **** *
 217:dht22.c       **** * Return:
 218:dht22.c       **** *  int16_t temperature: Temperature x 100 (to avoid using floats)
 219:dht22.c       **** *
 220:dht22.c       **** *******************************************************************************/
 221:dht22.c       **** int16_t DHT22_getTemperatureX100(uint8_t* data) {
 559              		.loc 1 221 0
 560              		.cfi_startproc
 561              		@ args = 0, pretend = 0, frame = 8
 562              		@ frame_needed = 1, uses_anonymous_args = 0
 563 0000 80B5     		push	{r7, lr}
ARM GAS  C:\Users\Tech\AppData\Local\Temp\ccxJsznD.s 			page 15


 564              		.cfi_def_cfa_offset 8
 565              		.cfi_offset 7, -8
 566              		.cfi_offset 14, -4
 567 0002 82B0     		sub	sp, sp, #8
 568              		.cfi_def_cfa_offset 16
 569 0004 00AF     		add	r7, sp, #0
 570              		.cfi_def_cfa_register 7
 571 0006 7860     		str	r0, [r7, #4]
 222:dht22.c       ****     
 223:dht22.c       ****     return ((data[3] * 10) + data[2]);
 572              		.loc 1 223 0
 573 0008 7B68     		ldr	r3, [r7, #4]
 574 000a 0333     		adds	r3, r3, #3
 575 000c 1B78     		ldrb	r3, [r3]
 576 000e 9BB2     		uxth	r3, r3
 577 0010 1A1C     		adds	r2, r3, #0
 578 0012 9200     		lsls	r2, r2, #2
 579 0014 D318     		adds	r3, r2, r3
 580 0016 DB18     		adds	r3, r3, r3
 581 0018 9AB2     		uxth	r2, r3
 582 001a 7B68     		ldr	r3, [r7, #4]
 583 001c 0233     		adds	r3, r3, #2
 584 001e 1B78     		ldrb	r3, [r3]
 585 0020 9BB2     		uxth	r3, r3
 586 0022 D318     		adds	r3, r2, r3
 587 0024 9BB2     		uxth	r3, r3
 588 0026 1BB2     		sxth	r3, r3
 224:dht22.c       **** }
 589              		.loc 1 224 0
 590 0028 1800     		movs	r0, r3
 591 002a BD46     		mov	sp, r7
 592 002c 02B0     		add	sp, sp, #8
 593              		@ sp needed
 594 002e 80BD     		pop	{r7, pc}
 595              		.cfi_endproc
 596              	.LFE41:
 597              		.size	DHT22_getTemperatureX100, .-DHT22_getTemperatureX100
 598              		.section	.text.DHT22_getHumidityX10,"ax",%progbits
 599              		.align	2
 600              		.global	DHT22_getHumidityX10
 601              		.code	16
 602              		.thumb_func
 603              		.type	DHT22_getHumidityX10, %function
 604              	DHT22_getHumidityX10:
 605              	.LFB42:
 225:dht22.c       **** 
 226:dht22.c       **** /*******************************************************************************
 227:dht22.c       **** * Function Name: DHT22_getHumidityX10
 228:dht22.c       **** ********************************************************************************
 229:dht22.c       **** *
 230:dht22.c       **** * Summary:
 231:dht22.c       **** *  This routine extracts the humidity data from a data packet read from a DHT22 sensor
 232:dht22.c       **** *
 233:dht22.c       **** * Parameters:
 234:dht22.c       **** *  uint8_t* data: DHT22 data array
 235:dht22.c       **** *
 236:dht22.c       **** * Return:
ARM GAS  C:\Users\Tech\AppData\Local\Temp\ccxJsznD.s 			page 16


 237:dht22.c       **** *  int16_t humidity: Humidity x 10 (to avoid using floats)
 238:dht22.c       **** *
 239:dht22.c       **** *******************************************************************************/
 240:dht22.c       **** uint16_t DHT22_getHumidityX10(uint8_t* data) {
 606              		.loc 1 240 0
 607              		.cfi_startproc
 608              		@ args = 0, pretend = 0, frame = 8
 609              		@ frame_needed = 1, uses_anonymous_args = 0
 610 0000 80B5     		push	{r7, lr}
 611              		.cfi_def_cfa_offset 8
 612              		.cfi_offset 7, -8
 613              		.cfi_offset 14, -4
 614 0002 82B0     		sub	sp, sp, #8
 615              		.cfi_def_cfa_offset 16
 616 0004 00AF     		add	r7, sp, #0
 617              		.cfi_def_cfa_register 7
 618 0006 7860     		str	r0, [r7, #4]
 241:dht22.c       ****     return ((data[1] * 10) + data[0]);
 619              		.loc 1 241 0
 620 0008 7B68     		ldr	r3, [r7, #4]
 621 000a 0133     		adds	r3, r3, #1
 622 000c 1B78     		ldrb	r3, [r3]
 623 000e 9BB2     		uxth	r3, r3
 624 0010 1A1C     		adds	r2, r3, #0
 625 0012 9200     		lsls	r2, r2, #2
 626 0014 D318     		adds	r3, r2, r3
 627 0016 DB18     		adds	r3, r3, r3
 628 0018 9AB2     		uxth	r2, r3
 629 001a 7B68     		ldr	r3, [r7, #4]
 630 001c 1B78     		ldrb	r3, [r3]
 631 001e 9BB2     		uxth	r3, r3
 632 0020 D318     		adds	r3, r2, r3
 633 0022 9BB2     		uxth	r3, r3
 242:dht22.c       **** }
 634              		.loc 1 242 0
 635 0024 1800     		movs	r0, r3
 636 0026 BD46     		mov	sp, r7
 637 0028 02B0     		add	sp, sp, #8
 638              		@ sp needed
 639 002a 80BD     		pop	{r7, pc}
 640              		.cfi_endproc
 641              	.LFE42:
 642              		.size	DHT22_getHumidityX10, .-DHT22_getHumidityX10
 643              		.bss
 644              	IState.7092:
 645 0000 00       		.space	1
 646              	IState.7096:
 647 0001 00       		.space	1
 648              		.text
 649              	.Letext0:
 650              		.file 2 "c:\\program files (x86)\\cypress\\psoc creator\\4.4\\psoc creator\\import\\gnu\\arm\\5.4.
 651              		.file 3 "c:\\program files (x86)\\cypress\\psoc creator\\4.4\\psoc creator\\import\\gnu\\arm\\5.4.
 652              		.section	.debug_info,"",%progbits
 653              	.Ldebug_info0:
 654 0000 96020000 		.4byte	0x296
 655 0004 0400     		.2byte	0x4
 656 0006 00000000 		.4byte	.Ldebug_abbrev0
ARM GAS  C:\Users\Tech\AppData\Local\Temp\ccxJsznD.s 			page 17


 657 000a 04       		.byte	0x4
 658 000b 01       		.uleb128 0x1
 659 000c 93000000 		.4byte	.LASF30
 660 0010 0C       		.byte	0xc
 661 0011 14000000 		.4byte	.LASF31
 662 0015 FF010000 		.4byte	.LASF32
 663 0019 00000000 		.4byte	.Ldebug_ranges0+0
 664 001d 00000000 		.4byte	0
 665 0021 00000000 		.4byte	.Ldebug_line0
 666 0025 02       		.uleb128 0x2
 667 0026 01       		.byte	0x1
 668 0027 06       		.byte	0x6
 669 0028 F3010000 		.4byte	.LASF0
 670 002c 03       		.uleb128 0x3
 671 002d 00000000 		.4byte	.LASF2
 672 0031 02       		.byte	0x2
 673 0032 1D       		.byte	0x1d
 674 0033 37000000 		.4byte	0x37
 675 0037 02       		.uleb128 0x2
 676 0038 01       		.byte	0x1
 677 0039 08       		.byte	0x8
 678 003a 51000000 		.4byte	.LASF1
 679 003e 03       		.uleb128 0x3
 680 003f 0A000000 		.4byte	.LASF3
 681 0043 02       		.byte	0x2
 682 0044 29       		.byte	0x29
 683 0045 49000000 		.4byte	0x49
 684 0049 02       		.uleb128 0x2
 685 004a 02       		.byte	0x2
 686 004b 05       		.byte	0x5
 687 004c BB010000 		.4byte	.LASF4
 688 0050 03       		.uleb128 0x3
 689 0051 21010000 		.4byte	.LASF5
 690 0055 02       		.byte	0x2
 691 0056 2B       		.byte	0x2b
 692 0057 5B000000 		.4byte	0x5b
 693 005b 02       		.uleb128 0x2
 694 005c 02       		.byte	0x2
 695 005d 07       		.byte	0x7
 696 005e 1C000000 		.4byte	.LASF6
 697 0062 02       		.uleb128 0x2
 698 0063 04       		.byte	0x4
 699 0064 05       		.byte	0x5
 700 0065 CE010000 		.4byte	.LASF7
 701 0069 02       		.uleb128 0x2
 702 006a 04       		.byte	0x4
 703 006b 07       		.byte	0x7
 704 006c 65000000 		.4byte	.LASF8
 705 0070 02       		.uleb128 0x2
 706 0071 08       		.byte	0x8
 707 0072 05       		.byte	0x5
 708 0073 A6010000 		.4byte	.LASF9
 709 0077 02       		.uleb128 0x2
 710 0078 08       		.byte	0x8
 711 0079 07       		.byte	0x7
 712 007a 3A000000 		.4byte	.LASF10
 713 007e 04       		.uleb128 0x4
ARM GAS  C:\Users\Tech\AppData\Local\Temp\ccxJsznD.s 			page 18


 714 007f 04       		.byte	0x4
 715 0080 05       		.byte	0x5
 716 0081 696E7400 		.ascii	"int\000"
 717 0085 02       		.uleb128 0x2
 718 0086 04       		.byte	0x4
 719 0087 07       		.byte	0x7
 720 0088 57010000 		.4byte	.LASF11
 721 008c 03       		.uleb128 0x3
 722 008d 69010000 		.4byte	.LASF12
 723 0091 03       		.byte	0x3
 724 0092 18       		.byte	0x18
 725 0093 2C000000 		.4byte	0x2c
 726 0097 03       		.uleb128 0x3
 727 0098 80010000 		.4byte	.LASF13
 728 009c 03       		.byte	0x3
 729 009d 20       		.byte	0x20
 730 009e 3E000000 		.4byte	0x3e
 731 00a2 03       		.uleb128 0x3
 732 00a3 C5010000 		.4byte	.LASF14
 733 00a7 03       		.byte	0x3
 734 00a8 24       		.byte	0x24
 735 00a9 50000000 		.4byte	0x50
 736 00ad 02       		.uleb128 0x2
 737 00ae 04       		.byte	0x4
 738 00af 04       		.byte	0x4
 739 00b0 2F000000 		.4byte	.LASF15
 740 00b4 02       		.uleb128 0x2
 741 00b5 08       		.byte	0x8
 742 00b6 04       		.byte	0x4
 743 00b7 2C010000 		.4byte	.LASF16
 744 00bb 02       		.uleb128 0x2
 745 00bc 01       		.byte	0x1
 746 00bd 08       		.byte	0x8
 747 00be 64010000 		.4byte	.LASF17
 748 00c2 02       		.uleb128 0x2
 749 00c3 08       		.byte	0x8
 750 00c4 04       		.byte	0x4
 751 00c5 D7010000 		.4byte	.LASF18
 752 00c9 02       		.uleb128 0x2
 753 00ca 04       		.byte	0x4
 754 00cb 07       		.byte	0x7
 755 00cc 9D010000 		.4byte	.LASF19
 756 00d0 05       		.uleb128 0x5
 757 00d1 46020000 		.4byte	.LASF28
 758 00d5 01       		.byte	0x1
 759 00d6 1A       		.byte	0x1a
 760 00d7 00000000 		.4byte	.LFB35
 761 00db 3C000000 		.4byte	.LFE35-.LFB35
 762 00df 01       		.uleb128 0x1
 763 00e0 9C       		.byte	0x9c
 764 00e1 F7000000 		.4byte	0xf7
 765 00e5 06       		.uleb128 0x6
 766 00e6 B4010000 		.4byte	.LASF20
 767 00ea 01       		.byte	0x1
 768 00eb 1C       		.byte	0x1c
 769 00ec 8C000000 		.4byte	0x8c
 770 00f0 05       		.uleb128 0x5
ARM GAS  C:\Users\Tech\AppData\Local\Temp\ccxJsznD.s 			page 19


 771 00f1 03       		.byte	0x3
 772 00f2 00000000 		.4byte	IState.7092
 773 00f6 00       		.byte	0
 774 00f7 07       		.uleb128 0x7
 775 00f8 77000000 		.4byte	.LASF22
 776 00fc 01       		.byte	0x1
 777 00fd 34       		.byte	0x34
 778 00fe 8C000000 		.4byte	0x8c
 779 0102 00000000 		.4byte	.LFB36
 780 0106 94000000 		.4byte	.LFE36-.LFB36
 781 010a 01       		.uleb128 0x1
 782 010b 9C       		.byte	0x9c
 783 010c 30010000 		.4byte	0x130
 784 0110 06       		.uleb128 0x6
 785 0111 B4010000 		.4byte	.LASF20
 786 0115 01       		.byte	0x1
 787 0116 36       		.byte	0x36
 788 0117 8C000000 		.4byte	0x8c
 789 011b 05       		.uleb128 0x5
 790 011c 03       		.byte	0x3
 791 011d 01000000 		.4byte	IState.7096
 792 0121 06       		.uleb128 0x6
 793 0122 5F000000 		.4byte	.LASF21
 794 0126 01       		.byte	0x1
 795 0127 39       		.byte	0x39
 796 0128 8C000000 		.4byte	0x8c
 797 012c 02       		.uleb128 0x2
 798 012d 91       		.byte	0x91
 799 012e 77       		.sleb128 -9
 800 012f 00       		.byte	0
 801 0130 07       		.uleb128 0x7
 802 0131 71010000 		.4byte	.LASF23
 803 0135 01       		.byte	0x1
 804 0136 5C       		.byte	0x5c
 805 0137 8C000000 		.4byte	0x8c
 806 013b 00000000 		.4byte	.LFB37
 807 013f 90000000 		.4byte	.LFE37-.LFB37
 808 0143 01       		.uleb128 0x1
 809 0144 9C       		.byte	0x9c
 810 0145 74010000 		.4byte	0x174
 811 0149 08       		.uleb128 0x8
 812 014a 64617400 		.ascii	"dat\000"
 813 014e 01       		.byte	0x1
 814 014f 5E       		.byte	0x5e
 815 0150 8C000000 		.4byte	0x8c
 816 0154 02       		.uleb128 0x2
 817 0155 91       		.byte	0x91
 818 0156 6F       		.sleb128 -17
 819 0157 06       		.uleb128 0x6
 820 0158 5F000000 		.4byte	.LASF21
 821 015c 01       		.byte	0x1
 822 015d 5F       		.byte	0x5f
 823 015e 8C000000 		.4byte	0x8c
 824 0162 02       		.uleb128 0x2
 825 0163 91       		.byte	0x91
 826 0164 6E       		.sleb128 -18
 827 0165 06       		.uleb128 0x6
ARM GAS  C:\Users\Tech\AppData\Local\Temp\ccxJsznD.s 			page 20


 828 0166 B4010000 		.4byte	.LASF20
 829 016a 01       		.byte	0x1
 830 016b 60       		.byte	0x60
 831 016c 8C000000 		.4byte	0x8c
 832 0170 02       		.uleb128 0x2
 833 0171 91       		.byte	0x91
 834 0172 6D       		.sleb128 -19
 835 0173 00       		.byte	0
 836 0174 07       		.uleb128 0x7
 837 0175 83000000 		.4byte	.LASF24
 838 0179 01       		.byte	0x1
 839 017a 85       		.byte	0x85
 840 017b 8C000000 		.4byte	0x8c
 841 017f 00000000 		.4byte	.LFB38
 842 0183 4E000000 		.4byte	.LFE38-.LFB38
 843 0187 01       		.uleb128 0x1
 844 0188 9C       		.byte	0x9c
 845 0189 B2010000 		.4byte	0x1b2
 846 018d 08       		.uleb128 0x8
 847 018e 64617400 		.ascii	"dat\000"
 848 0192 01       		.byte	0x1
 849 0193 87       		.byte	0x87
 850 0194 8C000000 		.4byte	0x8c
 851 0198 02       		.uleb128 0x2
 852 0199 91       		.byte	0x91
 853 019a 77       		.sleb128 -9
 854 019b 09       		.uleb128 0x9
 855 019c 0C000000 		.4byte	.LBB2
 856 01a0 36000000 		.4byte	.LBE2-.LBB2
 857 01a4 08       		.uleb128 0x8
 858 01a5 6900     		.ascii	"i\000"
 859 01a7 01       		.byte	0x1
 860 01a8 89       		.byte	0x89
 861 01a9 8C000000 		.4byte	0x8c
 862 01ad 02       		.uleb128 0x2
 863 01ae 91       		.byte	0x91
 864 01af 76       		.sleb128 -10
 865 01b0 00       		.byte	0
 866 01b1 00       		.byte	0
 867 01b2 07       		.uleb128 0x7
 868 01b3 E3010000 		.4byte	.LASF25
 869 01b7 01       		.byte	0x1
 870 01b8 A0       		.byte	0xa0
 871 01b9 8C000000 		.4byte	0x8c
 872 01bd 00000000 		.4byte	.LFB39
 873 01c1 CA000000 		.4byte	.LFE39-.LFB39
 874 01c5 01       		.uleb128 0x1
 875 01c6 9C       		.byte	0x9c
 876 01c7 18020000 		.4byte	0x218
 877 01cb 0A       		.uleb128 0xa
 878 01cc 35000000 		.4byte	.LASF27
 879 01d0 01       		.byte	0x1
 880 01d1 A0       		.byte	0xa0
 881 01d2 18020000 		.4byte	0x218
 882 01d6 02       		.uleb128 0x2
 883 01d7 91       		.byte	0x91
 884 01d8 64       		.sleb128 -28
ARM GAS  C:\Users\Tech\AppData\Local\Temp\ccxJsznD.s 			page 21


 885 01d9 08       		.uleb128 0x8
 886 01da 62756600 		.ascii	"buf\000"
 887 01de 01       		.byte	0x1
 888 01df A2       		.byte	0xa2
 889 01e0 33020000 		.4byte	0x233
 890 01e4 02       		.uleb128 0x2
 891 01e5 91       		.byte	0x91
 892 01e6 68       		.sleb128 -24
 893 01e7 0B       		.uleb128 0xb
 894 01e8 14000000 		.4byte	.LBB3
 895 01ec 36000000 		.4byte	.LBE3-.LBB3
 896 01f0 01020000 		.4byte	0x201
 897 01f4 08       		.uleb128 0x8
 898 01f5 6900     		.ascii	"i\000"
 899 01f7 01       		.byte	0x1
 900 01f8 A8       		.byte	0xa8
 901 01f9 8C000000 		.4byte	0x8c
 902 01fd 02       		.uleb128 0x2
 903 01fe 91       		.byte	0x91
 904 01ff 6F       		.sleb128 -17
 905 0200 00       		.byte	0
 906 0201 09       		.uleb128 0x9
 907 0202 82000000 		.4byte	.LBB4
 908 0206 3A000000 		.4byte	.LBE4-.LBB4
 909 020a 08       		.uleb128 0x8
 910 020b 6900     		.ascii	"i\000"
 911 020d 01       		.byte	0x1
 912 020e B0       		.byte	0xb0
 913 020f 8C000000 		.4byte	0x8c
 914 0213 02       		.uleb128 0x2
 915 0214 91       		.byte	0x91
 916 0215 6E       		.sleb128 -18
 917 0216 00       		.byte	0
 918 0217 00       		.byte	0
 919 0218 0C       		.uleb128 0xc
 920 0219 04       		.byte	0x4
 921 021a 8C000000 		.4byte	0x8c
 922 021e 0D       		.uleb128 0xd
 923 021f 2E020000 		.4byte	0x22e
 924 0223 2E020000 		.4byte	0x22e
 925 0227 0E       		.uleb128 0xe
 926 0228 C9000000 		.4byte	0xc9
 927 022c 04       		.byte	0x4
 928 022d 00       		.byte	0
 929 022e 0F       		.uleb128 0xf
 930 022f 8C000000 		.4byte	0x8c
 931 0233 0F       		.uleb128 0xf
 932 0234 1E020000 		.4byte	0x21e
 933 0238 10       		.uleb128 0x10
 934 0239 4C010000 		.4byte	.LASF33
 935 023d 01       		.byte	0x1
 936 023e C9       		.byte	0xc9
 937 023f 8C000000 		.4byte	0x8c
 938 0243 00000000 		.4byte	.LFB40
 939 0247 14000000 		.4byte	.LFE40-.LFB40
 940 024b 01       		.uleb128 0x1
 941 024c 9C       		.byte	0x9c
ARM GAS  C:\Users\Tech\AppData\Local\Temp\ccxJsznD.s 			page 22


 942 024d 11       		.uleb128 0x11
 943 024e 33010000 		.4byte	.LASF26
 944 0252 01       		.byte	0x1
 945 0253 DD       		.byte	0xdd
 946 0254 97000000 		.4byte	0x97
 947 0258 00000000 		.4byte	.LFB41
 948 025c 30000000 		.4byte	.LFE41-.LFB41
 949 0260 01       		.uleb128 0x1
 950 0261 9C       		.byte	0x9c
 951 0262 75020000 		.4byte	0x275
 952 0266 0A       		.uleb128 0xa
 953 0267 35000000 		.4byte	.LASF27
 954 026b 01       		.byte	0x1
 955 026c DD       		.byte	0xdd
 956 026d 18020000 		.4byte	0x218
 957 0271 02       		.uleb128 0x2
 958 0272 91       		.byte	0x91
 959 0273 74       		.sleb128 -12
 960 0274 00       		.byte	0
 961 0275 12       		.uleb128 0x12
 962 0276 88010000 		.4byte	.LASF29
 963 027a 01       		.byte	0x1
 964 027b F0       		.byte	0xf0
 965 027c A2000000 		.4byte	0xa2
 966 0280 00000000 		.4byte	.LFB42
 967 0284 2C000000 		.4byte	.LFE42-.LFB42
 968 0288 01       		.uleb128 0x1
 969 0289 9C       		.byte	0x9c
 970 028a 0A       		.uleb128 0xa
 971 028b 35000000 		.4byte	.LASF27
 972 028f 01       		.byte	0x1
 973 0290 F0       		.byte	0xf0
 974 0291 18020000 		.4byte	0x218
 975 0295 02       		.uleb128 0x2
 976 0296 91       		.byte	0x91
 977 0297 74       		.sleb128 -12
 978 0298 00       		.byte	0
 979 0299 00       		.byte	0
 980              		.section	.debug_abbrev,"",%progbits
 981              	.Ldebug_abbrev0:
 982 0000 01       		.uleb128 0x1
 983 0001 11       		.uleb128 0x11
 984 0002 01       		.byte	0x1
 985 0003 25       		.uleb128 0x25
 986 0004 0E       		.uleb128 0xe
 987 0005 13       		.uleb128 0x13
 988 0006 0B       		.uleb128 0xb
 989 0007 03       		.uleb128 0x3
 990 0008 0E       		.uleb128 0xe
 991 0009 1B       		.uleb128 0x1b
 992 000a 0E       		.uleb128 0xe
 993 000b 55       		.uleb128 0x55
 994 000c 17       		.uleb128 0x17
 995 000d 11       		.uleb128 0x11
 996 000e 01       		.uleb128 0x1
 997 000f 10       		.uleb128 0x10
 998 0010 17       		.uleb128 0x17
ARM GAS  C:\Users\Tech\AppData\Local\Temp\ccxJsznD.s 			page 23


 999 0011 00       		.byte	0
 1000 0012 00       		.byte	0
 1001 0013 02       		.uleb128 0x2
 1002 0014 24       		.uleb128 0x24
 1003 0015 00       		.byte	0
 1004 0016 0B       		.uleb128 0xb
 1005 0017 0B       		.uleb128 0xb
 1006 0018 3E       		.uleb128 0x3e
 1007 0019 0B       		.uleb128 0xb
 1008 001a 03       		.uleb128 0x3
 1009 001b 0E       		.uleb128 0xe
 1010 001c 00       		.byte	0
 1011 001d 00       		.byte	0
 1012 001e 03       		.uleb128 0x3
 1013 001f 16       		.uleb128 0x16
 1014 0020 00       		.byte	0
 1015 0021 03       		.uleb128 0x3
 1016 0022 0E       		.uleb128 0xe
 1017 0023 3A       		.uleb128 0x3a
 1018 0024 0B       		.uleb128 0xb
 1019 0025 3B       		.uleb128 0x3b
 1020 0026 0B       		.uleb128 0xb
 1021 0027 49       		.uleb128 0x49
 1022 0028 13       		.uleb128 0x13
 1023 0029 00       		.byte	0
 1024 002a 00       		.byte	0
 1025 002b 04       		.uleb128 0x4
 1026 002c 24       		.uleb128 0x24
 1027 002d 00       		.byte	0
 1028 002e 0B       		.uleb128 0xb
 1029 002f 0B       		.uleb128 0xb
 1030 0030 3E       		.uleb128 0x3e
 1031 0031 0B       		.uleb128 0xb
 1032 0032 03       		.uleb128 0x3
 1033 0033 08       		.uleb128 0x8
 1034 0034 00       		.byte	0
 1035 0035 00       		.byte	0
 1036 0036 05       		.uleb128 0x5
 1037 0037 2E       		.uleb128 0x2e
 1038 0038 01       		.byte	0x1
 1039 0039 3F       		.uleb128 0x3f
 1040 003a 19       		.uleb128 0x19
 1041 003b 03       		.uleb128 0x3
 1042 003c 0E       		.uleb128 0xe
 1043 003d 3A       		.uleb128 0x3a
 1044 003e 0B       		.uleb128 0xb
 1045 003f 3B       		.uleb128 0x3b
 1046 0040 0B       		.uleb128 0xb
 1047 0041 27       		.uleb128 0x27
 1048 0042 19       		.uleb128 0x19
 1049 0043 11       		.uleb128 0x11
 1050 0044 01       		.uleb128 0x1
 1051 0045 12       		.uleb128 0x12
 1052 0046 06       		.uleb128 0x6
 1053 0047 40       		.uleb128 0x40
 1054 0048 18       		.uleb128 0x18
 1055 0049 9642     		.uleb128 0x2116
ARM GAS  C:\Users\Tech\AppData\Local\Temp\ccxJsznD.s 			page 24


 1056 004b 19       		.uleb128 0x19
 1057 004c 01       		.uleb128 0x1
 1058 004d 13       		.uleb128 0x13
 1059 004e 00       		.byte	0
 1060 004f 00       		.byte	0
 1061 0050 06       		.uleb128 0x6
 1062 0051 34       		.uleb128 0x34
 1063 0052 00       		.byte	0
 1064 0053 03       		.uleb128 0x3
 1065 0054 0E       		.uleb128 0xe
 1066 0055 3A       		.uleb128 0x3a
 1067 0056 0B       		.uleb128 0xb
 1068 0057 3B       		.uleb128 0x3b
 1069 0058 0B       		.uleb128 0xb
 1070 0059 49       		.uleb128 0x49
 1071 005a 13       		.uleb128 0x13
 1072 005b 02       		.uleb128 0x2
 1073 005c 18       		.uleb128 0x18
 1074 005d 00       		.byte	0
 1075 005e 00       		.byte	0
 1076 005f 07       		.uleb128 0x7
 1077 0060 2E       		.uleb128 0x2e
 1078 0061 01       		.byte	0x1
 1079 0062 3F       		.uleb128 0x3f
 1080 0063 19       		.uleb128 0x19
 1081 0064 03       		.uleb128 0x3
 1082 0065 0E       		.uleb128 0xe
 1083 0066 3A       		.uleb128 0x3a
 1084 0067 0B       		.uleb128 0xb
 1085 0068 3B       		.uleb128 0x3b
 1086 0069 0B       		.uleb128 0xb
 1087 006a 27       		.uleb128 0x27
 1088 006b 19       		.uleb128 0x19
 1089 006c 49       		.uleb128 0x49
 1090 006d 13       		.uleb128 0x13
 1091 006e 11       		.uleb128 0x11
 1092 006f 01       		.uleb128 0x1
 1093 0070 12       		.uleb128 0x12
 1094 0071 06       		.uleb128 0x6
 1095 0072 40       		.uleb128 0x40
 1096 0073 18       		.uleb128 0x18
 1097 0074 9642     		.uleb128 0x2116
 1098 0076 19       		.uleb128 0x19
 1099 0077 01       		.uleb128 0x1
 1100 0078 13       		.uleb128 0x13
 1101 0079 00       		.byte	0
 1102 007a 00       		.byte	0
 1103 007b 08       		.uleb128 0x8
 1104 007c 34       		.uleb128 0x34
 1105 007d 00       		.byte	0
 1106 007e 03       		.uleb128 0x3
 1107 007f 08       		.uleb128 0x8
 1108 0080 3A       		.uleb128 0x3a
 1109 0081 0B       		.uleb128 0xb
 1110 0082 3B       		.uleb128 0x3b
 1111 0083 0B       		.uleb128 0xb
 1112 0084 49       		.uleb128 0x49
ARM GAS  C:\Users\Tech\AppData\Local\Temp\ccxJsznD.s 			page 25


 1113 0085 13       		.uleb128 0x13
 1114 0086 02       		.uleb128 0x2
 1115 0087 18       		.uleb128 0x18
 1116 0088 00       		.byte	0
 1117 0089 00       		.byte	0
 1118 008a 09       		.uleb128 0x9
 1119 008b 0B       		.uleb128 0xb
 1120 008c 01       		.byte	0x1
 1121 008d 11       		.uleb128 0x11
 1122 008e 01       		.uleb128 0x1
 1123 008f 12       		.uleb128 0x12
 1124 0090 06       		.uleb128 0x6
 1125 0091 00       		.byte	0
 1126 0092 00       		.byte	0
 1127 0093 0A       		.uleb128 0xa
 1128 0094 05       		.uleb128 0x5
 1129 0095 00       		.byte	0
 1130 0096 03       		.uleb128 0x3
 1131 0097 0E       		.uleb128 0xe
 1132 0098 3A       		.uleb128 0x3a
 1133 0099 0B       		.uleb128 0xb
 1134 009a 3B       		.uleb128 0x3b
 1135 009b 0B       		.uleb128 0xb
 1136 009c 49       		.uleb128 0x49
 1137 009d 13       		.uleb128 0x13
 1138 009e 02       		.uleb128 0x2
 1139 009f 18       		.uleb128 0x18
 1140 00a0 00       		.byte	0
 1141 00a1 00       		.byte	0
 1142 00a2 0B       		.uleb128 0xb
 1143 00a3 0B       		.uleb128 0xb
 1144 00a4 01       		.byte	0x1
 1145 00a5 11       		.uleb128 0x11
 1146 00a6 01       		.uleb128 0x1
 1147 00a7 12       		.uleb128 0x12
 1148 00a8 06       		.uleb128 0x6
 1149 00a9 01       		.uleb128 0x1
 1150 00aa 13       		.uleb128 0x13
 1151 00ab 00       		.byte	0
 1152 00ac 00       		.byte	0
 1153 00ad 0C       		.uleb128 0xc
 1154 00ae 0F       		.uleb128 0xf
 1155 00af 00       		.byte	0
 1156 00b0 0B       		.uleb128 0xb
 1157 00b1 0B       		.uleb128 0xb
 1158 00b2 49       		.uleb128 0x49
 1159 00b3 13       		.uleb128 0x13
 1160 00b4 00       		.byte	0
 1161 00b5 00       		.byte	0
 1162 00b6 0D       		.uleb128 0xd
 1163 00b7 01       		.uleb128 0x1
 1164 00b8 01       		.byte	0x1
 1165 00b9 49       		.uleb128 0x49
 1166 00ba 13       		.uleb128 0x13
 1167 00bb 01       		.uleb128 0x1
 1168 00bc 13       		.uleb128 0x13
 1169 00bd 00       		.byte	0
ARM GAS  C:\Users\Tech\AppData\Local\Temp\ccxJsznD.s 			page 26


 1170 00be 00       		.byte	0
 1171 00bf 0E       		.uleb128 0xe
 1172 00c0 21       		.uleb128 0x21
 1173 00c1 00       		.byte	0
 1174 00c2 49       		.uleb128 0x49
 1175 00c3 13       		.uleb128 0x13
 1176 00c4 2F       		.uleb128 0x2f
 1177 00c5 0B       		.uleb128 0xb
 1178 00c6 00       		.byte	0
 1179 00c7 00       		.byte	0
 1180 00c8 0F       		.uleb128 0xf
 1181 00c9 35       		.uleb128 0x35
 1182 00ca 00       		.byte	0
 1183 00cb 49       		.uleb128 0x49
 1184 00cc 13       		.uleb128 0x13
 1185 00cd 00       		.byte	0
 1186 00ce 00       		.byte	0
 1187 00cf 10       		.uleb128 0x10
 1188 00d0 2E       		.uleb128 0x2e
 1189 00d1 00       		.byte	0
 1190 00d2 3F       		.uleb128 0x3f
 1191 00d3 19       		.uleb128 0x19
 1192 00d4 03       		.uleb128 0x3
 1193 00d5 0E       		.uleb128 0xe
 1194 00d6 3A       		.uleb128 0x3a
 1195 00d7 0B       		.uleb128 0xb
 1196 00d8 3B       		.uleb128 0x3b
 1197 00d9 0B       		.uleb128 0xb
 1198 00da 27       		.uleb128 0x27
 1199 00db 19       		.uleb128 0x19
 1200 00dc 49       		.uleb128 0x49
 1201 00dd 13       		.uleb128 0x13
 1202 00de 11       		.uleb128 0x11
 1203 00df 01       		.uleb128 0x1
 1204 00e0 12       		.uleb128 0x12
 1205 00e1 06       		.uleb128 0x6
 1206 00e2 40       		.uleb128 0x40
 1207 00e3 18       		.uleb128 0x18
 1208 00e4 9642     		.uleb128 0x2116
 1209 00e6 19       		.uleb128 0x19
 1210 00e7 00       		.byte	0
 1211 00e8 00       		.byte	0
 1212 00e9 11       		.uleb128 0x11
 1213 00ea 2E       		.uleb128 0x2e
 1214 00eb 01       		.byte	0x1
 1215 00ec 3F       		.uleb128 0x3f
 1216 00ed 19       		.uleb128 0x19
 1217 00ee 03       		.uleb128 0x3
 1218 00ef 0E       		.uleb128 0xe
 1219 00f0 3A       		.uleb128 0x3a
 1220 00f1 0B       		.uleb128 0xb
 1221 00f2 3B       		.uleb128 0x3b
 1222 00f3 0B       		.uleb128 0xb
 1223 00f4 27       		.uleb128 0x27
 1224 00f5 19       		.uleb128 0x19
 1225 00f6 49       		.uleb128 0x49
 1226 00f7 13       		.uleb128 0x13
ARM GAS  C:\Users\Tech\AppData\Local\Temp\ccxJsznD.s 			page 27


 1227 00f8 11       		.uleb128 0x11
 1228 00f9 01       		.uleb128 0x1
 1229 00fa 12       		.uleb128 0x12
 1230 00fb 06       		.uleb128 0x6
 1231 00fc 40       		.uleb128 0x40
 1232 00fd 18       		.uleb128 0x18
 1233 00fe 9742     		.uleb128 0x2117
 1234 0100 19       		.uleb128 0x19
 1235 0101 01       		.uleb128 0x1
 1236 0102 13       		.uleb128 0x13
 1237 0103 00       		.byte	0
 1238 0104 00       		.byte	0
 1239 0105 12       		.uleb128 0x12
 1240 0106 2E       		.uleb128 0x2e
 1241 0107 01       		.byte	0x1
 1242 0108 3F       		.uleb128 0x3f
 1243 0109 19       		.uleb128 0x19
 1244 010a 03       		.uleb128 0x3
 1245 010b 0E       		.uleb128 0xe
 1246 010c 3A       		.uleb128 0x3a
 1247 010d 0B       		.uleb128 0xb
 1248 010e 3B       		.uleb128 0x3b
 1249 010f 0B       		.uleb128 0xb
 1250 0110 27       		.uleb128 0x27
 1251 0111 19       		.uleb128 0x19
 1252 0112 49       		.uleb128 0x49
 1253 0113 13       		.uleb128 0x13
 1254 0114 11       		.uleb128 0x11
 1255 0115 01       		.uleb128 0x1
 1256 0116 12       		.uleb128 0x12
 1257 0117 06       		.uleb128 0x6
 1258 0118 40       		.uleb128 0x40
 1259 0119 18       		.uleb128 0x18
 1260 011a 9742     		.uleb128 0x2117
 1261 011c 19       		.uleb128 0x19
 1262 011d 00       		.byte	0
 1263 011e 00       		.byte	0
 1264 011f 00       		.byte	0
 1265              		.section	.debug_aranges,"",%progbits
 1266 0000 54000000 		.4byte	0x54
 1267 0004 0200     		.2byte	0x2
 1268 0006 00000000 		.4byte	.Ldebug_info0
 1269 000a 04       		.byte	0x4
 1270 000b 00       		.byte	0
 1271 000c 0000     		.2byte	0
 1272 000e 0000     		.2byte	0
 1273 0010 00000000 		.4byte	.LFB35
 1274 0014 3C000000 		.4byte	.LFE35-.LFB35
 1275 0018 00000000 		.4byte	.LFB36
 1276 001c 94000000 		.4byte	.LFE36-.LFB36
 1277 0020 00000000 		.4byte	.LFB37
 1278 0024 90000000 		.4byte	.LFE37-.LFB37
 1279 0028 00000000 		.4byte	.LFB38
 1280 002c 4E000000 		.4byte	.LFE38-.LFB38
 1281 0030 00000000 		.4byte	.LFB39
 1282 0034 CA000000 		.4byte	.LFE39-.LFB39
 1283 0038 00000000 		.4byte	.LFB40
ARM GAS  C:\Users\Tech\AppData\Local\Temp\ccxJsznD.s 			page 28


 1284 003c 14000000 		.4byte	.LFE40-.LFB40
 1285 0040 00000000 		.4byte	.LFB41
 1286 0044 30000000 		.4byte	.LFE41-.LFB41
 1287 0048 00000000 		.4byte	.LFB42
 1288 004c 2C000000 		.4byte	.LFE42-.LFB42
 1289 0050 00000000 		.4byte	0
 1290 0054 00000000 		.4byte	0
 1291              		.section	.debug_ranges,"",%progbits
 1292              	.Ldebug_ranges0:
 1293 0000 00000000 		.4byte	.LFB35
 1294 0004 3C000000 		.4byte	.LFE35
 1295 0008 00000000 		.4byte	.LFB36
 1296 000c 94000000 		.4byte	.LFE36
 1297 0010 00000000 		.4byte	.LFB37
 1298 0014 90000000 		.4byte	.LFE37
 1299 0018 00000000 		.4byte	.LFB38
 1300 001c 4E000000 		.4byte	.LFE38
 1301 0020 00000000 		.4byte	.LFB39
 1302 0024 CA000000 		.4byte	.LFE39
 1303 0028 00000000 		.4byte	.LFB40
 1304 002c 14000000 		.4byte	.LFE40
 1305 0030 00000000 		.4byte	.LFB41
 1306 0034 30000000 		.4byte	.LFE41
 1307 0038 00000000 		.4byte	.LFB42
 1308 003c 2C000000 		.4byte	.LFE42
 1309 0040 00000000 		.4byte	0
 1310 0044 00000000 		.4byte	0
 1311              		.section	.debug_line,"",%progbits
 1312              	.Ldebug_line0:
 1313 0000 3D020000 		.section	.debug_str,"MS",%progbits,1
 1313      02001B01 
 1313      00000201 
 1313      FB0E0D00 
 1313      01010101 
 1314              	.LASF2:
 1315 0000 5F5F7569 		.ascii	"__uint8_t\000"
 1315      6E74385F 
 1315      7400
 1316              	.LASF3:
 1317 000a 5F5F696E 		.ascii	"__int16_t\000"
 1317      7431365F 
 1317      7400
 1318              	.LASF31:
 1319 0014 64687432 		.ascii	"dht22.c\000"
 1319      322E6300 
 1320              	.LASF6:
 1321 001c 73686F72 		.ascii	"short unsigned int\000"
 1321      7420756E 
 1321      7369676E 
 1321      65642069 
 1321      6E7400
 1322              	.LASF15:
 1323 002f 666C6F61 		.ascii	"float\000"
 1323      7400
 1324              	.LASF27:
 1325 0035 64617461 		.ascii	"data\000"
 1325      00
ARM GAS  C:\Users\Tech\AppData\Local\Temp\ccxJsznD.s 			page 29


 1326              	.LASF10:
 1327 003a 6C6F6E67 		.ascii	"long long unsigned int\000"
 1327      206C6F6E 
 1327      6720756E 
 1327      7369676E 
 1327      65642069 
 1328              	.LASF1:
 1329 0051 756E7369 		.ascii	"unsigned char\000"
 1329      676E6564 
 1329      20636861 
 1329      7200
 1330              	.LASF21:
 1331 005f 72657472 		.ascii	"retry\000"
 1331      7900
 1332              	.LASF8:
 1333 0065 6C6F6E67 		.ascii	"long unsigned int\000"
 1333      20756E73 
 1333      69676E65 
 1333      6420696E 
 1333      7400
 1334              	.LASF22:
 1335 0077 44485432 		.ascii	"DHT22_Check\000"
 1335      325F4368 
 1335      65636B00 
 1336              	.LASF24:
 1337 0083 44485432 		.ascii	"DHT22_Read_Byte\000"
 1337      325F5265 
 1337      61645F42 
 1337      79746500 
 1338              	.LASF30:
 1339 0093 474E5520 		.ascii	"GNU C11 5.4.1 20160609 (release) [ARM/embedded-5-br"
 1339      43313120 
 1339      352E342E 
 1339      31203230 
 1339      31363036 
 1340 00c6 616E6368 		.ascii	"anch revision 237715] -mcpu=cortex-m0 -mthumb -g -O"
 1340      20726576 
 1340      6973696F 
 1340      6E203233 
 1340      37373135 
 1341 00f9 30202D66 		.ascii	"0 -ffunction-sections -ffat-lto-objects\000"
 1341      66756E63 
 1341      74696F6E 
 1341      2D736563 
 1341      74696F6E 
 1342              	.LASF5:
 1343 0121 5F5F7569 		.ascii	"__uint16_t\000"
 1343      6E743136 
 1343      5F7400
 1344              	.LASF16:
 1345 012c 646F7562 		.ascii	"double\000"
 1345      6C6500
 1346              	.LASF26:
 1347 0133 44485432 		.ascii	"DHT22_getTemperatureX100\000"
 1347      325F6765 
 1347      7454656D 
 1347      70657261 
ARM GAS  C:\Users\Tech\AppData\Local\Temp\ccxJsznD.s 			page 30


 1347      74757265 
 1348              	.LASF33:
 1349 014c 44485432 		.ascii	"DHT22_Init\000"
 1349      325F496E 
 1349      697400
 1350              	.LASF11:
 1351 0157 756E7369 		.ascii	"unsigned int\000"
 1351      676E6564 
 1351      20696E74 
 1351      00
 1352              	.LASF17:
 1353 0164 63686172 		.ascii	"char\000"
 1353      00
 1354              	.LASF12:
 1355 0169 75696E74 		.ascii	"uint8_t\000"
 1355      385F7400 
 1356              	.LASF23:
 1357 0171 44485432 		.ascii	"DHT22_Read_Bit\000"
 1357      325F5265 
 1357      61645F42 
 1357      697400
 1358              	.LASF13:
 1359 0180 696E7431 		.ascii	"int16_t\000"
 1359      365F7400 
 1360              	.LASF29:
 1361 0188 44485432 		.ascii	"DHT22_getHumidityX10\000"
 1361      325F6765 
 1361      7448756D 
 1361      69646974 
 1361      79583130 
 1362              	.LASF19:
 1363 019d 73697A65 		.ascii	"sizetype\000"
 1363      74797065 
 1363      00
 1364              	.LASF9:
 1365 01a6 6C6F6E67 		.ascii	"long long int\000"
 1365      206C6F6E 
 1365      6720696E 
 1365      7400
 1366              	.LASF20:
 1367 01b4 49537461 		.ascii	"IState\000"
 1367      746500
 1368              	.LASF4:
 1369 01bb 73686F72 		.ascii	"short int\000"
 1369      7420696E 
 1369      7400
 1370              	.LASF14:
 1371 01c5 75696E74 		.ascii	"uint16_t\000"
 1371      31365F74 
 1371      00
 1372              	.LASF7:
 1373 01ce 6C6F6E67 		.ascii	"long int\000"
 1373      20696E74 
 1373      00
 1374              	.LASF18:
 1375 01d7 6C6F6E67 		.ascii	"long double\000"
 1375      20646F75 
ARM GAS  C:\Users\Tech\AppData\Local\Temp\ccxJsznD.s 			page 31


 1375      626C6500 
 1376              	.LASF25:
 1377 01e3 44485432 		.ascii	"DHT22_Read_Data\000"
 1377      325F5265 
 1377      61645F44 
 1377      61746100 
 1378              	.LASF0:
 1379 01f3 7369676E 		.ascii	"signed char\000"
 1379      65642063 
 1379      68617200 
 1380              	.LASF32:
 1381 01ff 433A5C63 		.ascii	"C:\\code\\PSoC BLE\\dht22-psoc-ble\\DHT22_BLE\\WS_D"
 1381      6F64655C 
 1381      50536F43 
 1381      20424C45 
 1381      5C646874 
 1382 022d 48543232 		.ascii	"HT22_BLE\\DHT22_BLE.cydsn\000"
 1382      5F424C45 
 1382      5C444854 
 1382      32325F42 
 1382      4C452E63 
 1383              	.LASF28:
 1384 0246 44485432 		.ascii	"DHT22_Reset\000"
 1384      325F5265 
 1384      73657400 
 1385              		.ident	"GCC: (GNU Tools for ARM Embedded Processors) 5.4.1 20160609 (release) [ARM/embedded-5-bran
