ARM GAS  C:\Users\Tech\AppData\Local\Temp\ccVfb7bc.s 			page 1


   1              		.syntax unified
   2              		.cpu cortex-m0
   3              		.fpu softvfp
   4              		.eabi_attribute 20, 1
   5              		.eabi_attribute 21, 1
   6              		.eabi_attribute 23, 3
   7              		.eabi_attribute 24, 1
   8              		.eabi_attribute 25, 1
   9              		.eabi_attribute 26, 1
  10              		.eabi_attribute 30, 6
  11              		.eabi_attribute 34, 0
  12              		.eabi_attribute 18, 4
  13              		.thumb
  14              		.syntax unified
  15              		.file	"dht22.c"
  16              		.text
  17              	.Ltext0:
  18              		.cfi_sections	.debug_frame
  19              		.section	.text.DHT22_Reset,"ax",%progbits
  20              		.align	2
  21              		.global	DHT22_Reset
  22              		.code	16
  23              		.thumb_func
  24              		.type	DHT22_Reset, %function
  25              	DHT22_Reset:
  26              	.LFB35:
  27              		.file 1 "dht22.c"
   1:dht22.c       **** /* ========================================
   2:dht22.c       ****  * Filename:        dht22.c
   3:dht22.c       ****  * Description:     DHT22 Driver for PSoC source file
   4:dht22.c       ****  * Author:          techdude101
   5:dht22.c       ****  * Version:         0.1.0
   6:dht22.c       ****  * ========================================
   7:dht22.c       **** */
   8:dht22.c       **** 
   9:dht22.c       **** #include "dht22.h"
  10:dht22.c       **** #include <project.h>
  11:dht22.c       **** 
  12:dht22.c       **** /*******************************************************************************
  13:dht22.c       **** * Function Name: DHT22_Reset
  14:dht22.c       **** ********************************************************************************
  15:dht22.c       **** *
  16:dht22.c       **** * Summary:
  17:dht22.c       **** *  This routine resets a DHT22 device.
  18:dht22.c       **** *
  19:dht22.c       **** * Parameters:
  20:dht22.c       **** *  None
  21:dht22.c       **** *
  22:dht22.c       **** * Return:
  23:dht22.c       **** *  None
  24:dht22.c       **** *
  25:dht22.c       **** *******************************************************************************/
  26:dht22.c       **** void DHT22_Reset(void)	   
  27:dht22.c       **** {      	
  28              		.loc 1 27 0
  29              		.cfi_startproc
  30              		@ args = 0, pretend = 0, frame = 0
ARM GAS  C:\Users\Tech\AppData\Local\Temp\ccVfb7bc.s 			page 2


  31              		@ frame_needed = 1, uses_anonymous_args = 0
  32 0000 80B5     		push	{r7, lr}
  33              		.cfi_def_cfa_offset 8
  34              		.cfi_offset 7, -8
  35              		.cfi_offset 14, -4
  36 0002 00AF     		add	r7, sp, #0
  37              		.cfi_def_cfa_register 7
  28:dht22.c       ****     static uint8_t IState;
  29:dht22.c       ****     IState = CyEnterCriticalSection();  
  38              		.loc 1 29 0
  39 0004 FFF7FEFF 		bl	CyEnterCriticalSection
  40 0008 0300     		movs	r3, r0
  41 000a 1A00     		movs	r2, r3
  42 000c 0A4B     		ldr	r3, .L2
  43 000e 1A70     		strb	r2, [r3]
  30:dht22.c       ****     DHT22_DQ_Write(0); 	// Pull down DQ
  44              		.loc 1 30 0
  45 0010 0020     		movs	r0, #0
  46 0012 FFF7FEFF 		bl	DHT22_DQ_Write
  31:dht22.c       ****     CyDelay(20);    	// Pull down for at least 18ms
  47              		.loc 1 31 0
  48 0016 1420     		movs	r0, #20
  49 0018 FFF7FEFF 		bl	CyDelay
  32:dht22.c       ****     DHT22_DQ_Write(1); 	// DQ = 1 
  50              		.loc 1 32 0
  51 001c 0120     		movs	r0, #1
  52 001e FFF7FEFF 		bl	DHT22_DQ_Write
  33:dht22.c       **** 	CyDelayUs(30);     	// The host pulls 20~40us
  53              		.loc 1 33 0
  54 0022 1E20     		movs	r0, #30
  55 0024 FFF7FEFF 		bl	CyDelayUs
  34:dht22.c       ****     
  35:dht22.c       ****     CyExitCriticalSection(IState); 
  56              		.loc 1 35 0
  57 0028 034B     		ldr	r3, .L2
  58 002a 1B78     		ldrb	r3, [r3]
  59 002c 1800     		movs	r0, r3
  60 002e FFF7FEFF 		bl	CyExitCriticalSection
  36:dht22.c       **** }
  61              		.loc 1 36 0
  62 0032 C046     		nop
  63 0034 BD46     		mov	sp, r7
  64              		@ sp needed
  65 0036 80BD     		pop	{r7, pc}
  66              	.L3:
  67              		.align	2
  68              	.L2:
  69 0038 00000000 		.word	IState.7092
  70              		.cfi_endproc
  71              	.LFE35:
  72              		.size	DHT22_Reset, .-DHT22_Reset
  73              		.section	.text.DHT22_Check,"ax",%progbits
  74              		.align	2
  75              		.global	DHT22_Check
  76              		.code	16
  77              		.thumb_func
  78              		.type	DHT22_Check, %function
ARM GAS  C:\Users\Tech\AppData\Local\Temp\ccVfb7bc.s 			page 3


  79              	DHT22_Check:
  80              	.LFB36:
  37:dht22.c       **** 
  38:dht22.c       **** /*******************************************************************************
  39:dht22.c       **** * Function Name: DHT22_Check
  40:dht22.c       **** ********************************************************************************
  41:dht22.c       **** *
  42:dht22.c       **** * Summary:
  43:dht22.c       **** *  This routine resets a DHT22 device.
  44:dht22.c       **** *
  45:dht22.c       **** * Parameters:
  46:dht22.c       **** *  None
  47:dht22.c       **** *
  48:dht22.c       **** * Return:
  49:dht22.c       **** *  uint8_t error: 1 = error, 0 = no error
  50:dht22.c       **** *
  51:dht22.c       **** *******************************************************************************/
  52:dht22.c       **** uint8_t DHT22_Check(void) 	   
  53:dht22.c       **** {   
  81              		.loc 1 53 0
  82              		.cfi_startproc
  83              		@ args = 0, pretend = 0, frame = 8
  84              		@ frame_needed = 1, uses_anonymous_args = 0
  85 0000 80B5     		push	{r7, lr}
  86              		.cfi_def_cfa_offset 8
  87              		.cfi_offset 7, -8
  88              		.cfi_offset 14, -4
  89 0002 82B0     		sub	sp, sp, #8
  90              		.cfi_def_cfa_offset 16
  91 0004 00AF     		add	r7, sp, #0
  92              		.cfi_def_cfa_register 7
  54:dht22.c       ****     static uint8_t IState;
  55:dht22.c       ****     IState = CyEnterCriticalSection();  
  93              		.loc 1 55 0
  94 0006 FFF7FEFF 		bl	CyEnterCriticalSection
  95 000a 0300     		movs	r3, r0
  96 000c 1A00     		movs	r2, r3
  97 000e 204B     		ldr	r3, .L14
  98 0010 1A70     		strb	r2, [r3]
  56:dht22.c       ****     
  57:dht22.c       **** 	uint8_t retry = 100;
  99              		.loc 1 57 0
 100 0012 FB1D     		adds	r3, r7, #7
 101 0014 6422     		movs	r2, #100
 102 0016 1A70     		strb	r2, [r3]
  58:dht22.c       ****    	while ((!DHT22_DQ_Read()) && retry) // DHT22 will pull down 40~80us
 103              		.loc 1 58 0
 104 0018 07E0     		b	.L5
 105              	.L7:
  59:dht22.c       **** 	{
  60:dht22.c       **** 		retry--;
 106              		.loc 1 60 0
 107 001a FB1D     		adds	r3, r7, #7
 108 001c 1A78     		ldrb	r2, [r3]
 109 001e FB1D     		adds	r3, r7, #7
 110 0020 013A     		subs	r2, r2, #1
 111 0022 1A70     		strb	r2, [r3]
ARM GAS  C:\Users\Tech\AppData\Local\Temp\ccVfb7bc.s 			page 4


  61:dht22.c       **** 		CyDelayUs(1);
 112              		.loc 1 61 0
 113 0024 0120     		movs	r0, #1
 114 0026 FFF7FEFF 		bl	CyDelayUs
 115              	.L5:
  58:dht22.c       ****    	while ((!DHT22_DQ_Read()) && retry) // DHT22 will pull down 40~80us
 116              		.loc 1 58 0
 117 002a FFF7FEFF 		bl	DHT22_DQ_Read
 118 002e 031E     		subs	r3, r0, #0
 119 0030 03D1     		bne	.L6
  58:dht22.c       ****    	while ((!DHT22_DQ_Read()) && retry) // DHT22 will pull down 40~80us
 120              		.loc 1 58 0 is_stmt 0 discriminator 1
 121 0032 FB1D     		adds	r3, r7, #7
 122 0034 1B78     		ldrb	r3, [r3]
 123 0036 002B     		cmp	r3, #0
 124 0038 EFD1     		bne	.L7
 125              	.L6:
  62:dht22.c       **** 	};	 
  63:dht22.c       **** 	if (retry < 1) return 1;
 126              		.loc 1 63 0 is_stmt 1
 127 003a FB1D     		adds	r3, r7, #7
 128 003c 1B78     		ldrb	r3, [r3]
 129 003e 002B     		cmp	r3, #0
 130 0040 01D1     		bne	.L8
 131              		.loc 1 63 0 is_stmt 0 discriminator 1
 132 0042 0123     		movs	r3, #1
 133 0044 1FE0     		b	.L9
 134              	.L8:
  64:dht22.c       **** 	else retry = 100;
 135              		.loc 1 64 0 is_stmt 1
 136 0046 FB1D     		adds	r3, r7, #7
 137 0048 6422     		movs	r2, #100
 138 004a 1A70     		strb	r2, [r3]
  65:dht22.c       ****     while (DHT22_DQ_Read() && retry) // DHT22 will pull up 40~80us again after pulling low
 139              		.loc 1 65 0
 140 004c 07E0     		b	.L10
 141              	.L12:
  66:dht22.c       **** 	{
  67:dht22.c       **** 		retry--;
 142              		.loc 1 67 0
 143 004e FB1D     		adds	r3, r7, #7
 144 0050 1A78     		ldrb	r2, [r3]
 145 0052 FB1D     		adds	r3, r7, #7
 146 0054 013A     		subs	r2, r2, #1
 147 0056 1A70     		strb	r2, [r3]
  68:dht22.c       **** 		CyDelayUs(1);
 148              		.loc 1 68 0
 149 0058 0120     		movs	r0, #1
 150 005a FFF7FEFF 		bl	CyDelayUs
 151              	.L10:
  65:dht22.c       ****     while (DHT22_DQ_Read() && retry) // DHT22 will pull up 40~80us again after pulling low
 152              		.loc 1 65 0
 153 005e FFF7FEFF 		bl	DHT22_DQ_Read
 154 0062 031E     		subs	r3, r0, #0
 155 0064 03D0     		beq	.L11
  65:dht22.c       ****     while (DHT22_DQ_Read() && retry) // DHT22 will pull up 40~80us again after pulling low
 156              		.loc 1 65 0 is_stmt 0 discriminator 1
ARM GAS  C:\Users\Tech\AppData\Local\Temp\ccVfb7bc.s 			page 5


 157 0066 FB1D     		adds	r3, r7, #7
 158 0068 1B78     		ldrb	r3, [r3]
 159 006a 002B     		cmp	r3, #0
 160 006c EFD1     		bne	.L12
 161              	.L11:
  69:dht22.c       **** 	};
  70:dht22.c       ****     
  71:dht22.c       ****     CyExitCriticalSection(IState); 
 162              		.loc 1 71 0 is_stmt 1
 163 006e 084B     		ldr	r3, .L14
 164 0070 1B78     		ldrb	r3, [r3]
 165 0072 1800     		movs	r0, r3
 166 0074 FFF7FEFF 		bl	CyExitCriticalSection
  72:dht22.c       **** 	
  73:dht22.c       ****     if (retry < 1)
 167              		.loc 1 73 0
 168 0078 FB1D     		adds	r3, r7, #7
 169 007a 1B78     		ldrb	r3, [r3]
 170 007c 002B     		cmp	r3, #0
 171 007e 01D1     		bne	.L13
  74:dht22.c       **** 		return 1;	    
 172              		.loc 1 74 0
 173 0080 0123     		movs	r3, #1
 174 0082 00E0     		b	.L9
 175              	.L13:
  75:dht22.c       **** 	return 0;
 176              		.loc 1 75 0
 177 0084 0023     		movs	r3, #0
 178              	.L9:
  76:dht22.c       **** }
 179              		.loc 1 76 0
 180 0086 1800     		movs	r0, r3
 181 0088 BD46     		mov	sp, r7
 182 008a 02B0     		add	sp, sp, #8
 183              		@ sp needed
 184 008c 80BD     		pop	{r7, pc}
 185              	.L15:
 186 008e C046     		.align	2
 187              	.L14:
 188 0090 01000000 		.word	IState.7096
 189              		.cfi_endproc
 190              	.LFE36:
 191              		.size	DHT22_Check, .-DHT22_Check
 192              		.section	.text.DHT22_Read_Bit,"ax",%progbits
 193              		.align	2
 194              		.global	DHT22_Read_Bit
 195              		.code	16
 196              		.thumb_func
 197              		.type	DHT22_Read_Bit, %function
 198              	DHT22_Read_Bit:
 199              	.LFB37:
  77:dht22.c       **** 
  78:dht22.c       **** /*******************************************************************************
  79:dht22.c       **** * Function Name: DHT22_Read_Bit
  80:dht22.c       **** ********************************************************************************
  81:dht22.c       **** *
  82:dht22.c       **** * Summary:
ARM GAS  C:\Users\Tech\AppData\Local\Temp\ccVfb7bc.s 			page 6


  83:dht22.c       **** *  This routine reads one bit from a DHT22 device.
  84:dht22.c       **** *
  85:dht22.c       **** * Parameters:
  86:dht22.c       **** *  None
  87:dht22.c       **** *
  88:dht22.c       **** * Return:
  89:dht22.c       **** *  uint8_t bit: Bit status
  90:dht22.c       **** *
  91:dht22.c       **** *******************************************************************************/
  92:dht22.c       **** uint8_t DHT22_Read_Bit(void) 			 
  93:dht22.c       **** {
 200              		.loc 1 93 0
 201              		.cfi_startproc
 202              		@ args = 0, pretend = 0, frame = 8
 203              		@ frame_needed = 1, uses_anonymous_args = 0
 204 0000 90B5     		push	{r4, r7, lr}
 205              		.cfi_def_cfa_offset 12
 206              		.cfi_offset 4, -12
 207              		.cfi_offset 7, -8
 208              		.cfi_offset 14, -4
 209 0002 83B0     		sub	sp, sp, #12
 210              		.cfi_def_cfa_offset 24
 211 0004 00AF     		add	r7, sp, #0
 212              		.cfi_def_cfa_register 7
  94:dht22.c       ****  	uint8_t dat;
  95:dht22.c       ****  	uint8_t retry = 100;
 213              		.loc 1 95 0
 214 0006 BB1D     		adds	r3, r7, #6
 215 0008 6422     		movs	r2, #100
 216 000a 1A70     		strb	r2, [r3]
  96:dht22.c       ****     uint8_t IState = CyEnterCriticalSection();  
 217              		.loc 1 96 0
 218 000c 7C1D     		adds	r4, r7, #5
 219 000e FFF7FEFF 		bl	CyEnterCriticalSection
 220 0012 0300     		movs	r3, r0
 221 0014 2370     		strb	r3, [r4]
  97:dht22.c       **** 	
  98:dht22.c       ****     while((!DHT22_DQ_Read()) && retry) // Wait to go high
 222              		.loc 1 98 0
 223 0016 07E0     		b	.L17
 224              	.L19:
  99:dht22.c       **** 	{
 100:dht22.c       **** 		retry--;
 225              		.loc 1 100 0
 226 0018 BB1D     		adds	r3, r7, #6
 227 001a 1A78     		ldrb	r2, [r3]
 228 001c BB1D     		adds	r3, r7, #6
 229 001e 013A     		subs	r2, r2, #1
 230 0020 1A70     		strb	r2, [r3]
 101:dht22.c       **** 		CyDelayUs(1);
 231              		.loc 1 101 0
 232 0022 0120     		movs	r0, #1
 233 0024 FFF7FEFF 		bl	CyDelayUs
 234              	.L17:
  98:dht22.c       **** 	{
 235              		.loc 1 98 0
 236 0028 FFF7FEFF 		bl	DHT22_DQ_Read
ARM GAS  C:\Users\Tech\AppData\Local\Temp\ccVfb7bc.s 			page 7


 237 002c 031E     		subs	r3, r0, #0
 238 002e 03D1     		bne	.L18
  98:dht22.c       **** 	{
 239              		.loc 1 98 0 is_stmt 0 discriminator 1
 240 0030 BB1D     		adds	r3, r7, #6
 241 0032 1B78     		ldrb	r3, [r3]
 242 0034 002B     		cmp	r3, #0
 243 0036 EFD1     		bne	.L19
 244              	.L18:
 102:dht22.c       **** 	}
 103:dht22.c       **** 	retry = 100;
 245              		.loc 1 103 0 is_stmt 1
 246 0038 BB1D     		adds	r3, r7, #6
 247 003a 6422     		movs	r2, #100
 248 003c 1A70     		strb	r2, [r3]
 104:dht22.c       **** 	dat = 0;
 249              		.loc 1 104 0
 250 003e FB1D     		adds	r3, r7, #7
 251 0040 0022     		movs	r2, #0
 252 0042 1A70     		strb	r2, [r3]
 105:dht22.c       **** 	CyDelayUs(30); //wait for 30us
 253              		.loc 1 105 0
 254 0044 1E20     		movs	r0, #30
 255 0046 FFF7FEFF 		bl	CyDelayUs
 106:dht22.c       **** 	
 107:dht22.c       ****     if(DHT22_DQ_Read())	
 256              		.loc 1 107 0
 257 004a FFF7FEFF 		bl	DHT22_DQ_Read
 258 004e 031E     		subs	r3, r0, #0
 259 0050 0BD0     		beq	.L21
 108:dht22.c       **** 		dat = 1;	   
 260              		.loc 1 108 0
 261 0052 FB1D     		adds	r3, r7, #7
 262 0054 0122     		movs	r2, #1
 263 0056 1A70     		strb	r2, [r3]
 109:dht22.c       **** 	
 110:dht22.c       ****     while(DHT22_DQ_Read() && retry) // Waiting to go low
 264              		.loc 1 110 0
 265 0058 07E0     		b	.L21
 266              	.L23:
 111:dht22.c       **** 	{
 112:dht22.c       **** 		retry--;
 267              		.loc 1 112 0
 268 005a BB1D     		adds	r3, r7, #6
 269 005c 1A78     		ldrb	r2, [r3]
 270 005e BB1D     		adds	r3, r7, #6
 271 0060 013A     		subs	r2, r2, #1
 272 0062 1A70     		strb	r2, [r3]
 113:dht22.c       **** 		CyDelayUs(1);
 273              		.loc 1 113 0
 274 0064 0120     		movs	r0, #1
 275 0066 FFF7FEFF 		bl	CyDelayUs
 276              	.L21:
 110:dht22.c       **** 	{
 277              		.loc 1 110 0
 278 006a FFF7FEFF 		bl	DHT22_DQ_Read
 279 006e 031E     		subs	r3, r0, #0
ARM GAS  C:\Users\Tech\AppData\Local\Temp\ccVfb7bc.s 			page 8


 280 0070 03D0     		beq	.L22
 110:dht22.c       **** 	{
 281              		.loc 1 110 0 is_stmt 0 discriminator 1
 282 0072 BB1D     		adds	r3, r7, #6
 283 0074 1B78     		ldrb	r3, [r3]
 284 0076 002B     		cmp	r3, #0
 285 0078 EFD1     		bne	.L23
 286              	.L22:
 114:dht22.c       **** 	}
 115:dht22.c       ****     CyExitCriticalSection(IState);
 287              		.loc 1 115 0 is_stmt 1
 288 007a 7B1D     		adds	r3, r7, #5
 289 007c 1B78     		ldrb	r3, [r3]
 290 007e 1800     		movs	r0, r3
 291 0080 FFF7FEFF 		bl	CyExitCriticalSection
 116:dht22.c       **** 	return dat;		
 292              		.loc 1 116 0
 293 0084 FB1D     		adds	r3, r7, #7
 294 0086 1B78     		ldrb	r3, [r3]
 117:dht22.c       **** }
 295              		.loc 1 117 0
 296 0088 1800     		movs	r0, r3
 297 008a BD46     		mov	sp, r7
 298 008c 03B0     		add	sp, sp, #12
 299              		@ sp needed
 300 008e 90BD     		pop	{r4, r7, pc}
 301              		.cfi_endproc
 302              	.LFE37:
 303              		.size	DHT22_Read_Bit, .-DHT22_Read_Bit
 304              		.section	.text.DHT22_Read_Byte,"ax",%progbits
 305              		.align	2
 306              		.global	DHT22_Read_Byte
 307              		.code	16
 308              		.thumb_func
 309              		.type	DHT22_Read_Byte, %function
 310              	DHT22_Read_Byte:
 311              	.LFB38:
 118:dht22.c       **** 
 119:dht22.c       **** /*******************************************************************************
 120:dht22.c       **** * Function Name: DHT22_Read_Byte
 121:dht22.c       **** ********************************************************************************
 122:dht22.c       **** *
 123:dht22.c       **** * Summary:
 124:dht22.c       **** *  This routine reads one byte from a DHT22 device.
 125:dht22.c       **** *
 126:dht22.c       **** * Parameters:
 127:dht22.c       **** *  None
 128:dht22.c       **** *
 129:dht22.c       **** * Return:
 130:dht22.c       **** *  uint8_t read byte: Byte read from DHT22 device
 131:dht22.c       **** *
 132:dht22.c       **** *******************************************************************************/
 133:dht22.c       **** uint8_t DHT22_Read_Byte(void)    
 134:dht22.c       **** {        
 312              		.loc 1 134 0
 313              		.cfi_startproc
 314              		@ args = 0, pretend = 0, frame = 8
ARM GAS  C:\Users\Tech\AppData\Local\Temp\ccVfb7bc.s 			page 9


 315              		@ frame_needed = 1, uses_anonymous_args = 0
 316 0000 80B5     		push	{r7, lr}
 317              		.cfi_def_cfa_offset 8
 318              		.cfi_offset 7, -8
 319              		.cfi_offset 14, -4
 320 0002 82B0     		sub	sp, sp, #8
 321              		.cfi_def_cfa_offset 16
 322 0004 00AF     		add	r7, sp, #0
 323              		.cfi_def_cfa_register 7
 135:dht22.c       ****     uint8_t dat;
 136:dht22.c       ****     dat = 0;
 324              		.loc 1 136 0
 325 0006 FB1D     		adds	r3, r7, #7
 326 0008 0022     		movs	r2, #0
 327 000a 1A70     		strb	r2, [r3]
 328              	.LBB2:
 137:dht22.c       **** 	for (uint8_t i = 0; i < 8; i++) 
 329              		.loc 1 137 0
 330 000c BB1D     		adds	r3, r7, #6
 331 000e 0022     		movs	r2, #0
 332 0010 1A70     		strb	r2, [r3]
 333 0012 12E0     		b	.L26
 334              	.L27:
 138:dht22.c       **** 	{
 139:dht22.c       ****    		dat <<= 1; 
 335              		.loc 1 139 0 discriminator 3
 336 0014 FA1D     		adds	r2, r7, #7
 337 0016 FB1D     		adds	r3, r7, #7
 338 0018 1B78     		ldrb	r3, [r3]
 339 001a DB18     		adds	r3, r3, r3
 340 001c 1370     		strb	r3, [r2]
 140:dht22.c       **** 	    dat |= DHT22_Read_Bit();
 341              		.loc 1 140 0 discriminator 3
 342 001e FFF7FEFF 		bl	DHT22_Read_Bit
 343 0022 0300     		movs	r3, r0
 344 0024 1900     		movs	r1, r3
 345 0026 FB1D     		adds	r3, r7, #7
 346 0028 FA1D     		adds	r2, r7, #7
 347 002a 1278     		ldrb	r2, [r2]
 348 002c 0A43     		orrs	r2, r1
 349 002e 1A70     		strb	r2, [r3]
 137:dht22.c       **** 	for (uint8_t i = 0; i < 8; i++) 
 350              		.loc 1 137 0 discriminator 3
 351 0030 BB1D     		adds	r3, r7, #6
 352 0032 1A78     		ldrb	r2, [r3]
 353 0034 BB1D     		adds	r3, r7, #6
 354 0036 0132     		adds	r2, r2, #1
 355 0038 1A70     		strb	r2, [r3]
 356              	.L26:
 137:dht22.c       **** 	for (uint8_t i = 0; i < 8; i++) 
 357              		.loc 1 137 0 is_stmt 0 discriminator 1
 358 003a BB1D     		adds	r3, r7, #6
 359 003c 1B78     		ldrb	r3, [r3]
 360 003e 072B     		cmp	r3, #7
 361 0040 E8D9     		bls	.L27
 362              	.LBE2:
 141:dht22.c       ****     }						    
ARM GAS  C:\Users\Tech\AppData\Local\Temp\ccVfb7bc.s 			page 10


 142:dht22.c       ****     return dat;
 363              		.loc 1 142 0 is_stmt 1
 364 0042 FB1D     		adds	r3, r7, #7
 365 0044 1B78     		ldrb	r3, [r3]
 143:dht22.c       **** }
 366              		.loc 1 143 0
 367 0046 1800     		movs	r0, r3
 368 0048 BD46     		mov	sp, r7
 369 004a 02B0     		add	sp, sp, #8
 370              		@ sp needed
 371 004c 80BD     		pop	{r7, pc}
 372              		.cfi_endproc
 373              	.LFE38:
 374              		.size	DHT22_Read_Byte, .-DHT22_Read_Byte
 375 004e C046     		.section	.text.DHT22_Read_Data,"ax",%progbits
 376              		.align	2
 377              		.global	DHT22_Read_Data
 378              		.code	16
 379              		.thumb_func
 380              		.type	DHT22_Read_Data, %function
 381              	DHT22_Read_Data:
 382              	.LFB39:
 144:dht22.c       **** 
 145:dht22.c       **** /*******************************************************************************
 146:dht22.c       **** * Function Name: DHT22_Read_Data
 147:dht22.c       **** ********************************************************************************
 148:dht22.c       **** *
 149:dht22.c       **** * Summary:
 150:dht22.c       **** *  This routine reads the sensor data from a DHT22 device.
 151:dht22.c       **** *  Humidity[0-1], temperature[2-3] and checksum[4]
 152:dht22.c       **** *
 153:dht22.c       **** * Parameters:
 154:dht22.c       **** *  uint8_t* data: Pointer to an array[5] to store the data read from the DHT22 device
 155:dht22.c       **** *
 156:dht22.c       **** * Return:
 157:dht22.c       **** *  uint8_t error: 1 = error, 0 = no error
 158:dht22.c       **** *
 159:dht22.c       **** *******************************************************************************/
 160:dht22.c       **** uint8_t DHT22_Read_Data(uint8_t *data)    
 161:dht22.c       **** {        
 383              		.loc 1 161 0
 384              		.cfi_startproc
 385              		@ args = 0, pretend = 0, frame = 16
 386              		@ frame_needed = 1, uses_anonymous_args = 0
 387 0000 90B5     		push	{r4, r7, lr}
 388              		.cfi_def_cfa_offset 12
 389              		.cfi_offset 4, -12
 390              		.cfi_offset 7, -8
 391              		.cfi_offset 14, -4
 392 0002 85B0     		sub	sp, sp, #20
 393              		.cfi_def_cfa_offset 32
 394 0004 00AF     		add	r7, sp, #0
 395              		.cfi_def_cfa_register 7
 396 0006 7860     		str	r0, [r7, #4]
 162:dht22.c       ****  	uint8_t buf[5];
 163:dht22.c       **** 	
 164:dht22.c       ****     DHT22_Reset();
ARM GAS  C:\Users\Tech\AppData\Local\Temp\ccVfb7bc.s 			page 11


 397              		.loc 1 164 0
 398 0008 FFF7FEFF 		bl	DHT22_Reset
 165:dht22.c       **** 	
 166:dht22.c       ****     if(DHT22_Check() == 0)
 399              		.loc 1 166 0
 400 000c FFF7FEFF 		bl	DHT22_Check
 401 0010 031E     		subs	r3, r0, #0
 402 0012 4FD1     		bne	.L30
 403              	.LBB3:
 167:dht22.c       **** 	{
 168:dht22.c       **** 		for(uint8_t i = 0; i < 5; i++) // Read 40-bit data
 404              		.loc 1 168 0
 405 0014 0F23     		movs	r3, #15
 406 0016 FB18     		adds	r3, r7, r3
 407 0018 0022     		movs	r2, #0
 408 001a 1A70     		strb	r2, [r3]
 409 001c 10E0     		b	.L31
 410              	.L32:
 169:dht22.c       **** 		{
 170:dht22.c       **** 			buf[i] = DHT22_Read_Byte();
 411              		.loc 1 170 0 discriminator 3
 412 001e 0F23     		movs	r3, #15
 413 0020 FB18     		adds	r3, r7, r3
 414 0022 1C78     		ldrb	r4, [r3]
 415 0024 FFF7FEFF 		bl	DHT22_Read_Byte
 416 0028 0300     		movs	r3, r0
 417 002a 1A00     		movs	r2, r3
 418 002c 0823     		movs	r3, #8
 419 002e FB18     		adds	r3, r7, r3
 420 0030 1A55     		strb	r2, [r3, r4]
 168:dht22.c       **** 		{
 421              		.loc 1 168 0 discriminator 3
 422 0032 0F23     		movs	r3, #15
 423 0034 FB18     		adds	r3, r7, r3
 424 0036 1A78     		ldrb	r2, [r3]
 425 0038 0F23     		movs	r3, #15
 426 003a FB18     		adds	r3, r7, r3
 427 003c 0132     		adds	r2, r2, #1
 428 003e 1A70     		strb	r2, [r3]
 429              	.L31:
 168:dht22.c       **** 		{
 430              		.loc 1 168 0 is_stmt 0 discriminator 1
 431 0040 0F23     		movs	r3, #15
 432 0042 FB18     		adds	r3, r7, r3
 433 0044 1B78     		ldrb	r3, [r3]
 434 0046 042B     		cmp	r3, #4
 435 0048 E9D9     		bls	.L32
 436              	.LBE3:
 171:dht22.c       **** 		}
 172:dht22.c       ****         
 173:dht22.c       **** 		// Checksum accumulation has a considerable probability that will exceed 8 bits (that is, the val
 174:dht22.c       **** 		if((uint8_t)(buf[0] + buf[1] + buf[2] + buf[3]) == buf[4])  
 437              		.loc 1 174 0 is_stmt 1
 438 004a 0823     		movs	r3, #8
 439 004c FB18     		adds	r3, r7, r3
 440 004e 1A78     		ldrb	r2, [r3]
 441 0050 0823     		movs	r3, #8
ARM GAS  C:\Users\Tech\AppData\Local\Temp\ccVfb7bc.s 			page 12


 442 0052 FB18     		adds	r3, r7, r3
 443 0054 5B78     		ldrb	r3, [r3, #1]
 444 0056 D318     		adds	r3, r2, r3
 445 0058 DAB2     		uxtb	r2, r3
 446 005a 0823     		movs	r3, #8
 447 005c FB18     		adds	r3, r7, r3
 448 005e 9B78     		ldrb	r3, [r3, #2]
 449 0060 D318     		adds	r3, r2, r3
 450 0062 DAB2     		uxtb	r2, r3
 451 0064 0823     		movs	r3, #8
 452 0066 FB18     		adds	r3, r7, r3
 453 0068 DB78     		ldrb	r3, [r3, #3]
 454 006a D318     		adds	r3, r2, r3
 455 006c DAB2     		uxtb	r2, r3
 456 006e 0823     		movs	r3, #8
 457 0070 FB18     		adds	r3, r7, r3
 458 0072 1B79     		ldrb	r3, [r3, #4]
 459 0074 9A42     		cmp	r2, r3
 460 0076 1DD1     		bne	.L30
 461              	.LBB4:
 175:dht22.c       **** 		{
 176:dht22.c       **** 			for(uint8_t i = 0; i < 4; i++)
 462              		.loc 1 176 0
 463 0078 0E23     		movs	r3, #14
 464 007a FB18     		adds	r3, r7, r3
 465 007c 0022     		movs	r2, #0
 466 007e 1A70     		strb	r2, [r3]
 467 0080 11E0     		b	.L33
 468              	.L34:
 177:dht22.c       **** 			{
 178:dht22.c       **** 				*data = buf[i];
 469              		.loc 1 178 0 discriminator 3
 470 0082 0E23     		movs	r3, #14
 471 0084 FB18     		adds	r3, r7, r3
 472 0086 1B78     		ldrb	r3, [r3]
 473 0088 0822     		movs	r2, #8
 474 008a BA18     		adds	r2, r7, r2
 475 008c D25C     		ldrb	r2, [r2, r3]
 476 008e 7B68     		ldr	r3, [r7, #4]
 477 0090 1A70     		strb	r2, [r3]
 179:dht22.c       **** 				data++;
 478              		.loc 1 179 0 discriminator 3
 479 0092 7B68     		ldr	r3, [r7, #4]
 480 0094 0133     		adds	r3, r3, #1
 481 0096 7B60     		str	r3, [r7, #4]
 176:dht22.c       **** 			{
 482              		.loc 1 176 0 discriminator 3
 483 0098 0E23     		movs	r3, #14
 484 009a FB18     		adds	r3, r7, r3
 485 009c 1A78     		ldrb	r2, [r3]
 486 009e 0E23     		movs	r3, #14
 487 00a0 FB18     		adds	r3, r7, r3
 488 00a2 0132     		adds	r2, r2, #1
 489 00a4 1A70     		strb	r2, [r3]
 490              	.L33:
 176:dht22.c       **** 			{
 491              		.loc 1 176 0 is_stmt 0 discriminator 1
ARM GAS  C:\Users\Tech\AppData\Local\Temp\ccVfb7bc.s 			page 13


 492 00a6 0E23     		movs	r3, #14
 493 00a8 FB18     		adds	r3, r7, r3
 494 00aa 1B78     		ldrb	r3, [r3]
 495 00ac 032B     		cmp	r3, #3
 496 00ae E8D9     		bls	.L34
 497              	.LBE4:
 180:dht22.c       **** 			}
 181:dht22.c       **** 			return 0;	
 498              		.loc 1 181 0 is_stmt 1
 499 00b0 0023     		movs	r3, #0
 500 00b2 00E0     		b	.L36
 501              	.L30:
 182:dht22.c       **** 		}
 183:dht22.c       **** 	}
 184:dht22.c       **** 	return 1;   
 502              		.loc 1 184 0
 503 00b4 0123     		movs	r3, #1
 504              	.L36:
 185:dht22.c       **** }
 505              		.loc 1 185 0 discriminator 1
 506 00b6 1800     		movs	r0, r3
 507 00b8 BD46     		mov	sp, r7
 508 00ba 05B0     		add	sp, sp, #20
 509              		@ sp needed
 510 00bc 90BD     		pop	{r4, r7, pc}
 511              		.cfi_endproc
 512              	.LFE39:
 513              		.size	DHT22_Read_Data, .-DHT22_Read_Data
 514 00be C046     		.section	.text.DHT22_Init,"ax",%progbits
 515              		.align	2
 516              		.global	DHT22_Init
 517              		.code	16
 518              		.thumb_func
 519              		.type	DHT22_Init, %function
 520              	DHT22_Init:
 521              	.LFB40:
 186:dht22.c       **** 
 187:dht22.c       **** /*******************************************************************************
 188:dht22.c       **** * Function Name: DHT22_Init
 189:dht22.c       **** ********************************************************************************
 190:dht22.c       **** *
 191:dht22.c       **** * Summary:
 192:dht22.c       **** *  This routine initializes and checks for the presence of a DHT22 device.
 193:dht22.c       **** *
 194:dht22.c       **** * Parameters:
 195:dht22.c       **** *  None
 196:dht22.c       **** *
 197:dht22.c       **** * Return:
 198:dht22.c       **** *  uint8_t error: 1 = error, 0 = no error
 199:dht22.c       **** *
 200:dht22.c       **** *******************************************************************************/
 201:dht22.c       **** uint8_t DHT22_Init(void)
 202:dht22.c       **** {	
 522              		.loc 1 202 0
 523              		.cfi_startproc
 524              		@ args = 0, pretend = 0, frame = 0
 525              		@ frame_needed = 1, uses_anonymous_args = 0
ARM GAS  C:\Users\Tech\AppData\Local\Temp\ccVfb7bc.s 			page 14


 526 0000 80B5     		push	{r7, lr}
 527              		.cfi_def_cfa_offset 8
 528              		.cfi_offset 7, -8
 529              		.cfi_offset 14, -4
 530 0002 00AF     		add	r7, sp, #0
 531              		.cfi_def_cfa_register 7
 203:dht22.c       **** 	DHT22_Reset();
 532              		.loc 1 203 0
 533 0004 FFF7FEFF 		bl	DHT22_Reset
 204:dht22.c       **** 	return DHT22_Check();
 534              		.loc 1 204 0
 535 0008 FFF7FEFF 		bl	DHT22_Check
 536 000c 0300     		movs	r3, r0
 205:dht22.c       **** }
 537              		.loc 1 205 0
 538 000e 1800     		movs	r0, r3
 539 0010 BD46     		mov	sp, r7
 540              		@ sp needed
 541 0012 80BD     		pop	{r7, pc}
 542              		.cfi_endproc
 543              	.LFE40:
 544              		.size	DHT22_Init, .-DHT22_Init
 545              		.section	.text.DHT22_getTemperatureX100,"ax",%progbits
 546              		.align	2
 547              		.global	DHT22_getTemperatureX100
 548              		.code	16
 549              		.thumb_func
 550              		.type	DHT22_getTemperatureX100, %function
 551              	DHT22_getTemperatureX100:
 552              	.LFB41:
 206:dht22.c       **** 
 207:dht22.c       **** /*******************************************************************************
 208:dht22.c       **** * Function Name: DHT22_getTemperatureX100
 209:dht22.c       **** ********************************************************************************
 210:dht22.c       **** *
 211:dht22.c       **** * Summary:
 212:dht22.c       **** *  This routine extracts the temperature data from a data packet read from a DHT22 sensor
 213:dht22.c       **** *
 214:dht22.c       **** * Parameters:
 215:dht22.c       **** *  uint8_t* data: DHT22 data array
 216:dht22.c       **** *
 217:dht22.c       **** * Return:
 218:dht22.c       **** *  int16_t temperature: Temperature x 100 (to avoid using floats)
 219:dht22.c       **** *
 220:dht22.c       **** *******************************************************************************/
 221:dht22.c       **** int16_t DHT22_getTemperatureX100(uint8_t* data) {
 553              		.loc 1 221 0
 554              		.cfi_startproc
 555              		@ args = 0, pretend = 0, frame = 8
 556              		@ frame_needed = 1, uses_anonymous_args = 0
 557 0000 80B5     		push	{r7, lr}
 558              		.cfi_def_cfa_offset 8
 559              		.cfi_offset 7, -8
 560              		.cfi_offset 14, -4
 561 0002 82B0     		sub	sp, sp, #8
 562              		.cfi_def_cfa_offset 16
 563 0004 00AF     		add	r7, sp, #0
ARM GAS  C:\Users\Tech\AppData\Local\Temp\ccVfb7bc.s 			page 15


 564              		.cfi_def_cfa_register 7
 565 0006 7860     		str	r0, [r7, #4]
 222:dht22.c       ****     return ((data[3] * 10) + data[2]);
 566              		.loc 1 222 0
 567 0008 7B68     		ldr	r3, [r7, #4]
 568 000a 0333     		adds	r3, r3, #3
 569 000c 1B78     		ldrb	r3, [r3]
 570 000e 9BB2     		uxth	r3, r3
 571 0010 1A1C     		adds	r2, r3, #0
 572 0012 9200     		lsls	r2, r2, #2
 573 0014 D318     		adds	r3, r2, r3
 574 0016 DB18     		adds	r3, r3, r3
 575 0018 9AB2     		uxth	r2, r3
 576 001a 7B68     		ldr	r3, [r7, #4]
 577 001c 0233     		adds	r3, r3, #2
 578 001e 1B78     		ldrb	r3, [r3]
 579 0020 9BB2     		uxth	r3, r3
 580 0022 D318     		adds	r3, r2, r3
 581 0024 9BB2     		uxth	r3, r3
 582 0026 1BB2     		sxth	r3, r3
 223:dht22.c       **** }
 583              		.loc 1 223 0
 584 0028 1800     		movs	r0, r3
 585 002a BD46     		mov	sp, r7
 586 002c 02B0     		add	sp, sp, #8
 587              		@ sp needed
 588 002e 80BD     		pop	{r7, pc}
 589              		.cfi_endproc
 590              	.LFE41:
 591              		.size	DHT22_getTemperatureX100, .-DHT22_getTemperatureX100
 592              		.section	.text.DHT22_getHumidityX10,"ax",%progbits
 593              		.align	2
 594              		.global	DHT22_getHumidityX10
 595              		.code	16
 596              		.thumb_func
 597              		.type	DHT22_getHumidityX10, %function
 598              	DHT22_getHumidityX10:
 599              	.LFB42:
 224:dht22.c       **** 
 225:dht22.c       **** /*******************************************************************************
 226:dht22.c       **** * Function Name: DHT22_getHumidityX10
 227:dht22.c       **** ********************************************************************************
 228:dht22.c       **** *
 229:dht22.c       **** * Summary:
 230:dht22.c       **** *  This routine extracts the humidity data from a data packet read from a DHT22 sensor
 231:dht22.c       **** *
 232:dht22.c       **** * Parameters:
 233:dht22.c       **** *  uint8_t* data: DHT22 data array
 234:dht22.c       **** *
 235:dht22.c       **** * Return:
 236:dht22.c       **** *  int16_t humidity: Humidity x 10 (to avoid using floats)
 237:dht22.c       **** *
 238:dht22.c       **** *******************************************************************************/
 239:dht22.c       **** uint16_t DHT22_getHumidityX10(uint8_t* data) {
 600              		.loc 1 239 0
 601              		.cfi_startproc
 602              		@ args = 0, pretend = 0, frame = 8
ARM GAS  C:\Users\Tech\AppData\Local\Temp\ccVfb7bc.s 			page 16


 603              		@ frame_needed = 1, uses_anonymous_args = 0
 604 0000 80B5     		push	{r7, lr}
 605              		.cfi_def_cfa_offset 8
 606              		.cfi_offset 7, -8
 607              		.cfi_offset 14, -4
 608 0002 82B0     		sub	sp, sp, #8
 609              		.cfi_def_cfa_offset 16
 610 0004 00AF     		add	r7, sp, #0
 611              		.cfi_def_cfa_register 7
 612 0006 7860     		str	r0, [r7, #4]
 240:dht22.c       ****     return ((data[1] * 10) + data[0]);
 613              		.loc 1 240 0
 614 0008 7B68     		ldr	r3, [r7, #4]
 615 000a 0133     		adds	r3, r3, #1
 616 000c 1B78     		ldrb	r3, [r3]
 617 000e 9BB2     		uxth	r3, r3
 618 0010 1A1C     		adds	r2, r3, #0
 619 0012 9200     		lsls	r2, r2, #2
 620 0014 D318     		adds	r3, r2, r3
 621 0016 DB18     		adds	r3, r3, r3
 622 0018 9AB2     		uxth	r2, r3
 623 001a 7B68     		ldr	r3, [r7, #4]
 624 001c 1B78     		ldrb	r3, [r3]
 625 001e 9BB2     		uxth	r3, r3
 626 0020 D318     		adds	r3, r2, r3
 627 0022 9BB2     		uxth	r3, r3
 241:dht22.c       **** }
 628              		.loc 1 241 0
 629 0024 1800     		movs	r0, r3
 630 0026 BD46     		mov	sp, r7
 631 0028 02B0     		add	sp, sp, #8
 632              		@ sp needed
 633 002a 80BD     		pop	{r7, pc}
 634              		.cfi_endproc
 635              	.LFE42:
 636              		.size	DHT22_getHumidityX10, .-DHT22_getHumidityX10
 637              		.bss
 638              	IState.7092:
 639 0000 00       		.space	1
 640              	IState.7096:
 641 0001 00       		.space	1
 642              		.text
 643              	.Letext0:
 644              		.file 2 "c:\\program files (x86)\\cypress\\psoc creator\\4.4\\psoc creator\\import\\gnu\\arm\\5.4.
 645              		.file 3 "c:\\program files (x86)\\cypress\\psoc creator\\4.4\\psoc creator\\import\\gnu\\arm\\5.4.