ARM GAS  C:\Users\Tech\AppData\Local\Temp\ccsrYf1f.s 			page 1


   1              		.syntax unified
   2              		.cpu cortex-m0
   3              		.fpu softvfp
   4              		.eabi_attribute 20, 1
   5              		.eabi_attribute 21, 1
   6              		.eabi_attribute 23, 3
   7              		.eabi_attribute 24, 1
   8              		.eabi_attribute 25, 1
   9              		.eabi_attribute 26, 1
  10              		.eabi_attribute 30, 6
  11              		.eabi_attribute 34, 0
  12              		.eabi_attribute 18, 4
  13              		.thumb
  14              		.syntax unified
  15              		.file	"main.c"
  16              		.text
  17              	.Ltext0:
  18              		.cfi_sections	.debug_frame
  19              		.section	.text.main,"ax",%progbits
  20              		.align	2
  21              		.global	main
  22              		.code	16
  23              		.thumb_func
  24              		.type	main, %function
  25              	main:
  26              	.LFB35:
  27              		.file 1 "main.c"
   1:main.c        **** /* ========================================
   2:main.c        ****  * Filename:        main.c
   3:main.c        ****  * Description:     Main program PSoC source file
   4:main.c        ****  * Author:          techdude101
   5:main.c        ****  * Version:         0.1.0
   6:main.c        ****  * ========================================
   7:main.c        **** */
   8:main.c        **** 
   9:main.c        **** #include <project.h>
  10:main.c        **** #include "dht22.h"
  11:main.c        **** 
  12:main.c        **** /***************************************
  13:main.c        **** *        API Constants
  14:main.c        **** ***************************************/
  15:main.c        **** #define LED_ON                                      (0u)
  16:main.c        **** #define LED_OFF                                     (1u)
  17:main.c        **** 
  18:main.c        **** #define LOOP_DELAY                                  (1u)  /* How often would you like to update the
  19:main.c        **** 
  20:main.c        **** /* ADV payload dta structure */   
  21:main.c        **** #define advPayload                                  (cyBle_discoveryModeInfo.advData->advData) /* D
  22:main.c        **** #define TEMPERATURE_INDEX                           (11u) /* 11 - 14 */
  23:main.c        **** #define HUMIDITY_INDEX                              (17u) /* 17 - 18 */
  24:main.c        **** 
  25:main.c        **** /***************************************
  26:main.c        **** *        Function Prototypes
  27:main.c        **** ***************************************/
  28:main.c        **** void InitializeSystem(void);
  29:main.c        **** void StackEventHandler(uint32 event, void* eventParam);
  30:main.c        **** void EnterLowPowerMode(void);
ARM GAS  C:\Users\Tech\AppData\Local\Temp\ccsrYf1f.s 			page 2


  31:main.c        **** void DynamicADVPayloadUpdate(int16_t temperature, uint16_t humidity);
  32:main.c        **** 
  33:main.c        **** int main (void)
  34:main.c        **** {
  28              		.loc 1 34 0
  29              		.cfi_startproc
  30              		@ args = 0, pretend = 0, frame = 16
  31              		@ frame_needed = 1, uses_anonymous_args = 0
  32 0000 90B5     		push	{r4, r7, lr}
  33              		.cfi_def_cfa_offset 12
  34              		.cfi_offset 4, -12
  35              		.cfi_offset 7, -8
  36              		.cfi_offset 14, -4
  37 0002 85B0     		sub	sp, sp, #20
  38              		.cfi_def_cfa_offset 32
  39 0004 00AF     		add	r7, sp, #0
  40              		.cfi_def_cfa_register 7
  35:main.c        ****     uint8_t sleep_counter = 10;
  41              		.loc 1 35 0
  42 0006 0F23     		movs	r3, #15
  43 0008 FB18     		adds	r3, r7, r3
  44 000a 0A22     		movs	r2, #10
  45 000c 1A70     		strb	r2, [r3]
  36:main.c        ****     
  37:main.c        ****     InitializeSystem();
  46              		.loc 1 37 0
  47 000e FFF7FEFF 		bl	InitializeSystem
  38:main.c        ****     
  39:main.c        ****     /* Flash LED on startup */
  40:main.c        ****     LED_R_Write(LED_ON);
  48              		.loc 1 40 0
  49 0012 0020     		movs	r0, #0
  50 0014 FFF7FEFF 		bl	LED_R_Write
  41:main.c        ****     CyDelay(500);
  51              		.loc 1 41 0
  52 0018 FA23     		movs	r3, #250
  53 001a 5B00     		lsls	r3, r3, #1
  54 001c 1800     		movs	r0, r3
  55 001e FFF7FEFF 		bl	CyDelay
  42:main.c        ****     LED_R_Write(LED_OFF);
  56              		.loc 1 42 0
  57 0022 0120     		movs	r0, #1
  58 0024 FFF7FEFF 		bl	LED_R_Write
  59              	.L4:
  60              	.LBB2:
  43:main.c        ****     
  44:main.c        ****     for(;;)
  45:main.c        ****     {
  46:main.c        ****         /* Single API call to service all the BLE stack events. Must be
  47:main.c        ****          * called at least once in a BLE connection interval */
  48:main.c        ****         CyBle_ProcessEvents();
  61              		.loc 1 48 0
  62 0028 FFF7FEFF 		bl	CyBle_ProcessEvents
  49:main.c        ****         
  50:main.c        ****         uint8_t dht22_data[5] = { 0 };
  63              		.loc 1 50 0
  64 002c 3B1D     		adds	r3, r7, #4
ARM GAS  C:\Users\Tech\AppData\Local\Temp\ccsrYf1f.s 			page 3


  65 002e 1800     		movs	r0, r3
  66 0030 0523     		movs	r3, #5
  67 0032 1A00     		movs	r2, r3
  68 0034 0021     		movs	r1, #0
  69 0036 FFF7FEFF 		bl	memset
  51:main.c        **** 
  52:main.c        ****         // Read the sensor every x seconds
  53:main.c        ****         if (sleep_counter > 9) {
  70              		.loc 1 53 0
  71 003a 0F23     		movs	r3, #15
  72 003c FB18     		adds	r3, r7, r3
  73 003e 1B78     		ldrb	r3, [r3]
  74 0040 092B     		cmp	r3, #9
  75 0042 30D9     		bls	.L2
  76              	.LBB3:
  54:main.c        ****             sleep_counter = 0;
  77              		.loc 1 54 0
  78 0044 0F23     		movs	r3, #15
  79 0046 FB18     		adds	r3, r7, r3
  80 0048 0022     		movs	r2, #0
  81 004a 1A70     		strb	r2, [r3]
  55:main.c        ****             
  56:main.c        ****             // Read the sensor and store in an array
  57:main.c        ****             if (DHT22_Read_Data(dht22_data) != 0) {
  82              		.loc 1 57 0
  83 004c 3B1D     		adds	r3, r7, #4
  84 004e 1800     		movs	r0, r3
  85 0050 FFF7FEFF 		bl	DHT22_Read_Data
  86 0054 031E     		subs	r3, r0, #0
  87 0056 0BD0     		beq	.L3
  58:main.c        ****                 dht22_data[0] = 9;
  88              		.loc 1 58 0
  89 0058 3B1D     		adds	r3, r7, #4
  90 005a 0922     		movs	r2, #9
  91 005c 1A70     		strb	r2, [r3]
  59:main.c        ****                 dht22_data[1] = 9;
  92              		.loc 1 59 0
  93 005e 3B1D     		adds	r3, r7, #4
  94 0060 0922     		movs	r2, #9
  95 0062 5A70     		strb	r2, [r3, #1]
  60:main.c        ****                 dht22_data[2] = 9;
  96              		.loc 1 60 0
  97 0064 3B1D     		adds	r3, r7, #4
  98 0066 0922     		movs	r2, #9
  99 0068 9A70     		strb	r2, [r3, #2]
  61:main.c        ****                 dht22_data[3] = 9;
 100              		.loc 1 61 0
 101 006a 3B1D     		adds	r3, r7, #4
 102 006c 0922     		movs	r2, #9
 103 006e DA70     		strb	r2, [r3, #3]
 104              	.L3:
  62:main.c        ****             }
  63:main.c        ****             
  64:main.c        ****             // Extract the sensor data from the array
  65:main.c        ****             int16_t temperatureX100 = DHT22_getTemperatureX100(dht22_data);
 105              		.loc 1 65 0
 106 0070 0C23     		movs	r3, #12
ARM GAS  C:\Users\Tech\AppData\Local\Temp\ccsrYf1f.s 			page 4


 107 0072 FC18     		adds	r4, r7, r3
 108 0074 3B1D     		adds	r3, r7, #4
 109 0076 1800     		movs	r0, r3
 110 0078 FFF7FEFF 		bl	DHT22_getTemperatureX100
 111 007c 0300     		movs	r3, r0
 112 007e 2380     		strh	r3, [r4]
  66:main.c        ****             uint16_t humidityX10 = DHT22_getHumidityX10(dht22_data);
 113              		.loc 1 66 0
 114 0080 0A23     		movs	r3, #10
 115 0082 FC18     		adds	r4, r7, r3
 116 0084 3B1D     		adds	r3, r7, #4
 117 0086 1800     		movs	r0, r3
 118 0088 FFF7FEFF 		bl	DHT22_getHumidityX10
 119 008c 0300     		movs	r3, r0
 120 008e 2380     		strh	r3, [r4]
  67:main.c        ****             
  68:main.c        ****             // Update the advertized device name
  69:main.c        ****             DynamicADVPayloadUpdate(temperatureX100, humidityX10);
 121              		.loc 1 69 0
 122 0090 0A23     		movs	r3, #10
 123 0092 FB18     		adds	r3, r7, r3
 124 0094 1A88     		ldrh	r2, [r3]
 125 0096 0C23     		movs	r3, #12
 126 0098 FB18     		adds	r3, r7, r3
 127 009a 0021     		movs	r1, #0
 128 009c 5B5E     		ldrsh	r3, [r3, r1]
 129 009e 1100     		movs	r1, r2
 130 00a0 1800     		movs	r0, r3
 131 00a2 FFF7FEFF 		bl	DynamicADVPayloadUpdate
 132              	.L2:
 133              	.LBE3:
  70:main.c        ****         }
  71:main.c        ****                 
  72:main.c        ****         LED_R_Write(LED_OFF);
 134              		.loc 1 72 0
 135 00a6 0120     		movs	r0, #1
 136 00a8 FFF7FEFF 		bl	LED_R_Write
  73:main.c        ****         
  74:main.c        ****         /* Configure the system in lowest possible power modes during and between BLE ADV events */
  75:main.c        ****         EnterLowPowerMode();
 137              		.loc 1 75 0
 138 00ac FFF7FEFF 		bl	EnterLowPowerMode
  76:main.c        ****         
  77:main.c        ****         sleep_counter += 1;
 139              		.loc 1 77 0
 140 00b0 0F23     		movs	r3, #15
 141 00b2 FB18     		adds	r3, r7, r3
 142 00b4 0F22     		movs	r2, #15
 143 00b6 BA18     		adds	r2, r7, r2
 144 00b8 1278     		ldrb	r2, [r2]
 145 00ba 0132     		adds	r2, r2, #1
 146 00bc 1A70     		strb	r2, [r3]
  78:main.c        ****         
  79:main.c        ****         LED_R_Write(LED_ON);
 147              		.loc 1 79 0
 148 00be 0020     		movs	r0, #0
 149 00c0 FFF7FEFF 		bl	LED_R_Write
ARM GAS  C:\Users\Tech\AppData\Local\Temp\ccsrYf1f.s 			page 5


 150              	.LBE2:
  80:main.c        ****     }
 151              		.loc 1 80 0
 152 00c4 B0E7     		b	.L4
 153              		.cfi_endproc
 154              	.LFE35:
 155              		.size	main, .-main
 156 00c6 C046     		.section	.text.InitializeSystem,"ax",%progbits
 157              		.align	2
 158              		.global	InitializeSystem
 159              		.code	16
 160              		.thumb_func
 161              		.type	InitializeSystem, %function
 162              	InitializeSystem:
 163              	.LFB36:
  81:main.c        **** }
  82:main.c        **** 
  83:main.c        **** 
  84:main.c        **** /*******************************************************************************
  85:main.c        **** * Function Name: InitializeSystem
  86:main.c        **** ********************************************************************************
  87:main.c        **** *
  88:main.c        **** * Summary:
  89:main.c        **** *  This routine initializes all the componnets and firmware state.
  90:main.c        **** *
  91:main.c        **** * Parameters:
  92:main.c        **** *  None
  93:main.c        **** *
  94:main.c        **** * Return:
  95:main.c        **** *  None
  96:main.c        **** *
  97:main.c        **** *******************************************************************************/
  98:main.c        **** void InitializeSystem(void)
  99:main.c        **** {
 164              		.loc 1 99 0
 165              		.cfi_startproc
 166              		@ args = 0, pretend = 0, frame = 8
 167              		@ frame_needed = 1, uses_anonymous_args = 0
 168 0000 90B5     		push	{r4, r7, lr}
 169              		.cfi_def_cfa_offset 12
 170              		.cfi_offset 4, -12
 171              		.cfi_offset 7, -8
 172              		.cfi_offset 14, -4
 173 0002 83B0     		sub	sp, sp, #12
 174              		.cfi_def_cfa_offset 24
 175 0004 00AF     		add	r7, sp, #0
 176              		.cfi_def_cfa_register 7
 100:main.c        ****     CYBLE_API_RESULT_T apiResult;
 101:main.c        **** 
 102:main.c        ****     CyGlobalIntEnable;
 177              		.loc 1 102 0
 178              		.syntax divided
 179              	@ 102 "main.c" 1
 180 0006 62B6     		CPSIE   i
 181              	@ 0 "" 2
 103:main.c        ****     
 104:main.c        ****     //DHT22_Init();
ARM GAS  C:\Users\Tech\AppData\Local\Temp\ccsrYf1f.s 			page 6


 105:main.c        **** 
 106:main.c        ****     apiResult = CyBle_Start(StackEventHandler); /* Init the BLE stack and register an applicaiton c
 182              		.loc 1 106 0
 183              		.thumb
 184              		.syntax unified
 185 0008 BC1D     		adds	r4, r7, #6
 186 000a 0B4B     		ldr	r3, .L7
 187 000c 1800     		movs	r0, r3
 188 000e FFF7FEFF 		bl	CyBle_Start
 189 0012 0300     		movs	r3, r0
 190 0014 2380     		strh	r3, [r4]
 107:main.c        **** 
 108:main.c        ****     if(apiResult != CYBLE_ERROR_OK)
 191              		.loc 1 108 0
 192 0016 BB1D     		adds	r3, r7, #6
 193 0018 1B88     		ldrh	r3, [r3]
 194 001a 002B     		cmp	r3, #0
 195 001c 02D0     		beq	.L6
 109:main.c        ****     {
 110:main.c        ****         /* BLE stack initialization failed, check your configuration */
 111:main.c        ****         CYASSERT(0);
 196              		.loc 1 111 0 discriminator 1
 197 001e 0020     		movs	r0, #0
 198 0020 FFF7FEFF 		bl	CyHalt
 199              	.L6:
 112:main.c        ****     }
 113:main.c        ****     
 114:main.c        ****     /* Set XTAL divider to 3MHz mode */
 115:main.c        ****     CySysClkWriteEcoDiv(CY_SYS_CLK_ECO_DIV8); 
 200              		.loc 1 115 0
 201 0024 0320     		movs	r0, #3
 202 0026 FFF7FEFF 		bl	CySysClkWriteEcoDiv
 116:main.c        ****     
 117:main.c        ****     /* ILO is no longer required, shut it down */
 118:main.c        ****     CySysClkIloStop();
 203              		.loc 1 118 0
 204 002a FFF7FEFF 		bl	CySysClkIloStop
 119:main.c        **** }
 205              		.loc 1 119 0
 206 002e C046     		nop
 207 0030 BD46     		mov	sp, r7
 208 0032 03B0     		add	sp, sp, #12
 209              		@ sp needed
 210 0034 90BD     		pop	{r4, r7, pc}
 211              	.L8:
 212 0036 C046     		.align	2
 213              	.L7:
 214 0038 00000000 		.word	StackEventHandler
 215              		.cfi_endproc
 216              	.LFE36:
 217              		.size	InitializeSystem, .-InitializeSystem
 218              		.section	.text.EnterLowPowerMode,"ax",%progbits
 219              		.align	2
 220              		.global	EnterLowPowerMode
 221              		.code	16
 222              		.thumb_func
 223              		.type	EnterLowPowerMode, %function
ARM GAS  C:\Users\Tech\AppData\Local\Temp\ccsrYf1f.s 			page 7


 224              	EnterLowPowerMode:
 225              	.LFB37:
 120:main.c        **** 
 121:main.c        **** /*******************************************************************************
 122:main.c        **** * Function Name: EnterLowPowerMode
 123:main.c        **** ********************************************************************************
 124:main.c        **** *
 125:main.c        **** * Summary:
 126:main.c        **** *  This configures the BLESS and system in low power mode whenever possible.
 127:main.c        **** *
 128:main.c        **** * Parameters:
 129:main.c        **** *  None
 130:main.c        **** *
 131:main.c        **** * Return:
 132:main.c        **** *  None
 133:main.c        **** *
 134:main.c        **** *******************************************************************************/
 135:main.c        **** void EnterLowPowerMode(void)
 136:main.c        **** {
 226              		.loc 1 136 0
 227              		.cfi_startproc
 228              		@ args = 0, pretend = 0, frame = 8
 229              		@ frame_needed = 1, uses_anonymous_args = 0
 230 0000 90B5     		push	{r4, r7, lr}
 231              		.cfi_def_cfa_offset 12
 232              		.cfi_offset 4, -12
 233              		.cfi_offset 7, -8
 234              		.cfi_offset 14, -4
 235 0002 83B0     		sub	sp, sp, #12
 236              		.cfi_def_cfa_offset 24
 237 0004 00AF     		add	r7, sp, #0
 238              		.cfi_def_cfa_register 7
 137:main.c        ****     CYBLE_BLESS_STATE_T blessState;
 138:main.c        ****     uint8 intrStatus;
 139:main.c        ****     
 140:main.c        ****     /* Configure BLESS in Deep-Sleep mode */
 141:main.c        ****     CyBle_EnterLPM(CYBLE_BLESS_DEEPSLEEP);
 239              		.loc 1 141 0
 240 0006 0320     		movs	r0, #3
 241 0008 FFF7FEFF 		bl	CyBle_EnterLPM
 142:main.c        ****     
 143:main.c        ****     /* Prevent interrupts while entering system low power modes */
 144:main.c        ****     intrStatus = CyEnterCriticalSection();
 242              		.loc 1 144 0
 243 000c FC1D     		adds	r4, r7, #7
 244 000e FFF7FEFF 		bl	CyEnterCriticalSection
 245 0012 0300     		movs	r3, r0
 246 0014 2370     		strb	r3, [r4]
 145:main.c        ****     
 146:main.c        ****     /* Get the current state of BLESS block */
 147:main.c        ****     blessState = CyBle_GetBleSsState();
 247              		.loc 1 147 0
 248 0016 BC1D     		adds	r4, r7, #6
 249 0018 FFF7FEFF 		bl	CyBle_GetBleSsState
 250 001c 0300     		movs	r3, r0
 251 001e 2370     		strb	r3, [r4]
 148:main.c        ****     
ARM GAS  C:\Users\Tech\AppData\Local\Temp\ccsrYf1f.s 			page 8


 149:main.c        ****     /* If BLESS is in Deep-Sleep mode or the XTAL oscillator is turning on, 
 150:main.c        ****      * then PSoC 4 BLE can enter Deep-Sleep mode (1.3uA current consumption) */
 151:main.c        ****     if(blessState == CYBLE_BLESS_STATE_ECO_ON || 
 252              		.loc 1 151 0
 253 0020 BB1D     		adds	r3, r7, #6
 254 0022 1B78     		ldrb	r3, [r3]
 255 0024 042B     		cmp	r3, #4
 256 0026 03D0     		beq	.L10
 257              		.loc 1 151 0 is_stmt 0 discriminator 1
 258 0028 BB1D     		adds	r3, r7, #6
 259 002a 1B78     		ldrb	r3, [r3]
 260 002c 062B     		cmp	r3, #6
 261 002e 01D1     		bne	.L11
 262              	.L10:
 152:main.c        ****         blessState == CYBLE_BLESS_STATE_DEEPSLEEP)
 153:main.c        ****     {
 154:main.c        ****         CySysPmDeepSleep();
 263              		.loc 1 154 0 is_stmt 1
 264 0030 FFF7FEFF 		bl	CySysPmDeepSleep
 265              	.L11:
 155:main.c        ****     }
 156:main.c        ****     else
 157:main.c        ****     {
 158:main.c        ****         /* Keep trying to enter either Sleep or Deep-Sleep mode */    
 159:main.c        ****     }
 160:main.c        ****     
 161:main.c        ****     CyExitCriticalSection(intrStatus);
 266              		.loc 1 161 0
 267 0034 FB1D     		adds	r3, r7, #7
 268 0036 1B78     		ldrb	r3, [r3]
 269 0038 1800     		movs	r0, r3
 270 003a FFF7FEFF 		bl	CyExitCriticalSection
 162:main.c        **** }
 271              		.loc 1 162 0
 272 003e C046     		nop
 273 0040 BD46     		mov	sp, r7
 274 0042 03B0     		add	sp, sp, #12
 275              		@ sp needed
 276 0044 90BD     		pop	{r4, r7, pc}
 277              		.cfi_endproc
 278              	.LFE37:
 279              		.size	EnterLowPowerMode, .-EnterLowPowerMode
 280 0046 C046     		.section	.text.StackEventHandler,"ax",%progbits
 281              		.align	2
 282              		.global	StackEventHandler
 283              		.code	16
 284              		.thumb_func
 285              		.type	StackEventHandler, %function
 286              	StackEventHandler:
 287              	.LFB38:
 163:main.c        **** 
 164:main.c        **** 
 165:main.c        **** /*******************************************************************************
 166:main.c        **** * Function Name: StackEventHandler
 167:main.c        **** ********************************************************************************
 168:main.c        **** *
 169:main.c        **** * Summary:
ARM GAS  C:\Users\Tech\AppData\Local\Temp\ccsrYf1f.s 			page 9


 170:main.c        **** *  This is an event callback function to receive events from the BLE Component.
 171:main.c        **** *
 172:main.c        **** * Parameters:
 173:main.c        **** *  uint8 event:       Event from the CYBLE component
 174:main.c        **** *  void* eventParams: A structure instance for corresponding event type. The
 175:main.c        **** *                     list of event structure is described in the component
 176:main.c        **** *                     datasheet.
 177:main.c        **** *
 178:main.c        **** * Return:
 179:main.c        **** *  None
 180:main.c        **** *
 181:main.c        **** *******************************************************************************/
 182:main.c        **** void StackEventHandler(uint32 event, void *eventParam)
 183:main.c        **** {
 288              		.loc 1 183 0
 289              		.cfi_startproc
 290              		@ args = 0, pretend = 0, frame = 8
 291              		@ frame_needed = 1, uses_anonymous_args = 0
 292 0000 80B5     		push	{r7, lr}
 293              		.cfi_def_cfa_offset 8
 294              		.cfi_offset 7, -8
 295              		.cfi_offset 14, -4
 296 0002 82B0     		sub	sp, sp, #8
 297              		.cfi_def_cfa_offset 16
 298 0004 00AF     		add	r7, sp, #0
 299              		.cfi_def_cfa_register 7
 300 0006 7860     		str	r0, [r7, #4]
 301 0008 3960     		str	r1, [r7]
 184:main.c        ****     switch(event)
 302              		.loc 1 184 0
 303 000a 7B68     		ldr	r3, [r7, #4]
 304 000c 262B     		cmp	r3, #38
 305 000e 08D0     		beq	.L17
 306 0010 282B     		cmp	r3, #40
 307 0012 02D0     		beq	.L15
 308 0014 012B     		cmp	r3, #1
 309 0016 00D0     		beq	.L15
 185:main.c        ****     {
 186:main.c        ****         /* Mandatory events to be handled by Find Me Target design */
 187:main.c        ****         case CYBLE_EVT_STACK_ON:
 188:main.c        ****         case CYBLE_EVT_GAP_DEVICE_DISCONNECTED:
 189:main.c        ****             CyBle_GappStartAdvertisement(CYBLE_ADVERTISING_SLOW);
 190:main.c        ****           break;
 191:main.c        **** 
 192:main.c        ****         case CYBLE_EVT_GAPP_ADVERTISEMENT_START_STOP:
 193:main.c        ****             if(CyBle_GetState() == CYBLE_STATE_DISCONNECTED)
 194:main.c        ****             {
 195:main.c        **** 
 196:main.c        ****             }
 197:main.c        ****             break;
 198:main.c        **** 
 199:main.c        ****         default:
 200:main.c        ****         break;
 310              		.loc 1 200 0
 311 0018 04E0     		b	.L16
 312              	.L15:
 189:main.c        ****           break;
ARM GAS  C:\Users\Tech\AppData\Local\Temp\ccsrYf1f.s 			page 10


 313              		.loc 1 189 0
 314 001a 0120     		movs	r0, #1
 315 001c FFF7FEFF 		bl	CyBle_GappStartAdvertisement
 190:main.c        **** 
 316              		.loc 1 190 0
 317 0020 00E0     		b	.L16
 318              	.L17:
 197:main.c        **** 
 319              		.loc 1 197 0
 320 0022 C046     		nop
 321              	.L16:
 201:main.c        ****     }
 202:main.c        **** }
 322              		.loc 1 202 0
 323 0024 C046     		nop
 324 0026 BD46     		mov	sp, r7
 325 0028 02B0     		add	sp, sp, #8
 326              		@ sp needed
 327 002a 80BD     		pop	{r7, pc}
 328              		.cfi_endproc
 329              	.LFE38:
 330              		.size	StackEventHandler, .-StackEventHandler
 331              		.global	__aeabi_idiv
 332              		.global	__aeabi_idivmod
 333              		.global	__aeabi_uidiv
 334              		.global	__aeabi_uidivmod
 335              		.section	.text.DynamicADVPayloadUpdate,"ax",%progbits
 336              		.align	2
 337              		.global	DynamicADVPayloadUpdate
 338              		.code	16
 339              		.thumb_func
 340              		.type	DynamicADVPayloadUpdate, %function
 341              	DynamicADVPayloadUpdate:
 342              	.LFB39:
 203:main.c        **** 
 204:main.c        **** /*******************************************************************************
 205:main.c        **** * Function Name: DynamicADVPayloadUpdate
 206:main.c        **** ********************************************************************************
 207:main.c        **** *
 208:main.c        **** * Summary:
 209:main.c        **** *  This routine dynamically updates the BLE advertisement packet
 210:main.c        **** *
 211:main.c        **** * Parameters:
 212:main.c        **** *  None
 213:main.c        **** *
 214:main.c        **** * Return:
 215:main.c        **** *  None
 216:main.c        **** *
 217:main.c        **** *******************************************************************************/
 218:main.c        **** void DynamicADVPayloadUpdate(int16_t temperature, uint16_t humidity)
 219:main.c        **** {
 343              		.loc 1 219 0
 344              		.cfi_startproc
 345              		@ args = 0, pretend = 0, frame = 8
 346              		@ frame_needed = 1, uses_anonymous_args = 0
 347 0000 90B5     		push	{r4, r7, lr}
 348              		.cfi_def_cfa_offset 12
ARM GAS  C:\Users\Tech\AppData\Local\Temp\ccsrYf1f.s 			page 11


 349              		.cfi_offset 4, -12
 350              		.cfi_offset 7, -8
 351              		.cfi_offset 14, -4
 352 0002 83B0     		sub	sp, sp, #12
 353              		.cfi_def_cfa_offset 24
 354 0004 00AF     		add	r7, sp, #0
 355              		.cfi_def_cfa_register 7
 356 0006 0200     		movs	r2, r0
 357 0008 BB1D     		adds	r3, r7, #6
 358 000a 1A80     		strh	r2, [r3]
 359 000c 3B1D     		adds	r3, r7, #4
 360 000e 0A1C     		adds	r2, r1, #0
 361 0010 1A80     		strh	r2, [r3]
 220:main.c        ****     if(CyBle_GetBleSsState() == CYBLE_BLESS_STATE_EVENT_CLOSE)
 362              		.loc 1 220 0
 363 0012 FFF7FEFF 		bl	CyBle_GetBleSsState
 364 0016 0300     		movs	r3, r0
 365 0018 022B     		cmp	r3, #2
 366 001a 62D1     		bne	.L20
 221:main.c        ****     {   
 222:main.c        ****         /* Once the system enters Sleep/Deepsleep mode during advertisement, the source of wake-up 
 223:main.c        ****          * advertisement interval which has a wakeup interval of 1 advertisement (ADV) interval (10
 224:main.c        ****          * LOOP_DELAY * ADV interval is the interval after which ADV data is updated in this firmwa
 225:main.c        ****         
 226:main.c        ****         advPayload[TEMPERATURE_INDEX] = ('0' + (uint8_t)(temperature / 100));
 367              		.loc 1 226 0
 368 001c 334B     		ldr	r3, .L21
 369 001e 9C68     		ldr	r4, [r3, #8]
 370 0020 BB1D     		adds	r3, r7, #6
 371 0022 0022     		movs	r2, #0
 372 0024 9B5E     		ldrsh	r3, [r3, r2]
 373 0026 6421     		movs	r1, #100
 374 0028 1800     		movs	r0, r3
 375 002a FFF7FEFF 		bl	__aeabi_idiv
 376 002e 0300     		movs	r3, r0
 377 0030 1BB2     		sxth	r3, r3
 378 0032 DBB2     		uxtb	r3, r3
 379 0034 3033     		adds	r3, r3, #48
 380 0036 DBB2     		uxtb	r3, r3
 381 0038 E372     		strb	r3, [r4, #11]
 227:main.c        ****         advPayload[TEMPERATURE_INDEX + 1] = ('0' + (uint8_t)((temperature / 10) % 10));
 382              		.loc 1 227 0
 383 003a 2C4B     		ldr	r3, .L21
 384 003c 9C68     		ldr	r4, [r3, #8]
 385 003e BB1D     		adds	r3, r7, #6
 386 0040 0022     		movs	r2, #0
 387 0042 9B5E     		ldrsh	r3, [r3, r2]
 388 0044 0A21     		movs	r1, #10
 389 0046 1800     		movs	r0, r3
 390 0048 FFF7FEFF 		bl	__aeabi_idiv
 391 004c 0300     		movs	r3, r0
 392 004e 1BB2     		sxth	r3, r3
 393 0050 0A21     		movs	r1, #10
 394 0052 1800     		movs	r0, r3
 395 0054 FFF7FEFF 		bl	__aeabi_idivmod
 396 0058 0B00     		movs	r3, r1
 397 005a 1BB2     		sxth	r3, r3
ARM GAS  C:\Users\Tech\AppData\Local\Temp\ccsrYf1f.s 			page 12


 398 005c DBB2     		uxtb	r3, r3
 399 005e 3033     		adds	r3, r3, #48
 400 0060 DBB2     		uxtb	r3, r3
 401 0062 2373     		strb	r3, [r4, #12]
 228:main.c        ****         advPayload[TEMPERATURE_INDEX + 3] = ('0' + (uint8_t)(temperature % 10));
 402              		.loc 1 228 0
 403 0064 214B     		ldr	r3, .L21
 404 0066 9C68     		ldr	r4, [r3, #8]
 405 0068 BB1D     		adds	r3, r7, #6
 406 006a 0022     		movs	r2, #0
 407 006c 9B5E     		ldrsh	r3, [r3, r2]
 408 006e 0A21     		movs	r1, #10
 409 0070 1800     		movs	r0, r3
 410 0072 FFF7FEFF 		bl	__aeabi_idivmod
 411 0076 0B00     		movs	r3, r1
 412 0078 1BB2     		sxth	r3, r3
 413 007a DBB2     		uxtb	r3, r3
 414 007c 3033     		adds	r3, r3, #48
 415 007e DBB2     		uxtb	r3, r3
 416 0080 A373     		strb	r3, [r4, #14]
 229:main.c        ****         
 230:main.c        ****         advPayload[HUMIDITY_INDEX] = ('0' + (uint8_t)((humidity / 100) % 10));
 417              		.loc 1 230 0
 418 0082 1A4B     		ldr	r3, .L21
 419 0084 9C68     		ldr	r4, [r3, #8]
 420 0086 3B1D     		adds	r3, r7, #4
 421 0088 1B88     		ldrh	r3, [r3]
 422 008a 6421     		movs	r1, #100
 423 008c 1800     		movs	r0, r3
 424 008e FFF7FEFF 		bl	__aeabi_uidiv
 425 0092 0300     		movs	r3, r0
 426 0094 9BB2     		uxth	r3, r3
 427 0096 0A21     		movs	r1, #10
 428 0098 1800     		movs	r0, r3
 429 009a FFF7FEFF 		bl	__aeabi_uidivmod
 430 009e 0B00     		movs	r3, r1
 431 00a0 9BB2     		uxth	r3, r3
 432 00a2 DBB2     		uxtb	r3, r3
 433 00a4 3033     		adds	r3, r3, #48
 434 00a6 DBB2     		uxtb	r3, r3
 435 00a8 6374     		strb	r3, [r4, #17]
 231:main.c        ****         advPayload[HUMIDITY_INDEX + 1] = ('0' + (uint8_t)((humidity / 10) % 10));
 436              		.loc 1 231 0
 437 00aa 104B     		ldr	r3, .L21
 438 00ac 9C68     		ldr	r4, [r3, #8]
 439 00ae 3B1D     		adds	r3, r7, #4
 440 00b0 1B88     		ldrh	r3, [r3]
 441 00b2 0A21     		movs	r1, #10
 442 00b4 1800     		movs	r0, r3
 443 00b6 FFF7FEFF 		bl	__aeabi_uidiv
 444 00ba 0300     		movs	r3, r0
 445 00bc 9BB2     		uxth	r3, r3
 446 00be 0A21     		movs	r1, #10
 447 00c0 1800     		movs	r0, r3
 448 00c2 FFF7FEFF 		bl	__aeabi_uidivmod
 449 00c6 0B00     		movs	r3, r1
 450 00c8 9BB2     		uxth	r3, r3
ARM GAS  C:\Users\Tech\AppData\Local\Temp\ccsrYf1f.s 			page 13


 451 00ca DBB2     		uxtb	r3, r3
 452 00cc 3033     		adds	r3, r3, #48
 453 00ce DBB2     		uxtb	r3, r3
 454 00d0 A374     		strb	r3, [r4, #18]
 232:main.c        ****         
 233:main.c        ****         CyBle_GapUpdateAdvData(cyBle_discoveryModeInfo.advData, cyBle_discoveryModeInfo.scanRspData
 455              		.loc 1 233 0
 456 00d2 064B     		ldr	r3, .L21
 457 00d4 9A68     		ldr	r2, [r3, #8]
 458 00d6 054B     		ldr	r3, .L21
 459 00d8 DB68     		ldr	r3, [r3, #12]
 460 00da 1900     		movs	r1, r3
 461 00dc 1000     		movs	r0, r2
 462 00de FFF7FEFF 		bl	CyBle_GapUpdateAdvData
 463              	.L20:
 234:main.c        ****     }
 235:main.c        **** }
 464              		.loc 1 235 0
 465 00e2 C046     		nop
 466 00e4 BD46     		mov	sp, r7
 467 00e6 03B0     		add	sp, sp, #12
 468              		@ sp needed
 469 00e8 90BD     		pop	{r4, r7, pc}
 470              	.L22:
 471 00ea C046     		.align	2
 472              	.L21:
 473 00ec 00000000 		.word	cyBle_discoveryModeInfo
 474              		.cfi_endproc
 475              	.LFE39:
 476              		.size	DynamicADVPayloadUpdate, .-DynamicADVPayloadUpdate
 477              		.text
 478              	.Letext0:
 479              		.file 2 "c:\\program files (x86)\\cypress\\psoc creator\\4.4\\psoc creator\\import\\gnu\\arm\\5.4.
 480              		.file 3 "c:\\program files (x86)\\cypress\\psoc creator\\4.4\\psoc creator\\import\\gnu\\arm\\5.4.
 481              		.file 4 "Generated_Source\\PSoC4/cytypes.h"
 482              		.file 5 "Generated_Source\\PSoC4/BLE_Stack.h"
 483              		.file 6 "Generated_Source\\PSoC4/BLE_StackGap.h"
 484              		.file 7 "Generated_Source\\PSoC4/BLE_eventHandler.h"
 485              		.file 8 "Generated_Source\\PSoC4/BLE.h"